
bomb：     文件格式 elf32-i386


Disassembly of section .init:

080486f4 <_init>:
 80486f4:	53                   	push   %ebx
 80486f5:	83 ec 08             	sub    $0x8,%esp
 80486f8:	e8 13 02 00 00       	call   8048910 <__x86.get_pc_thunk.bx>
 80486fd:	81 c3 03 39 00 00    	add    $0x3903,%ebx
 8048703:	8b 83 fc ff ff ff    	mov    -0x4(%ebx),%eax
 8048709:	85 c0                	test   %eax,%eax
 804870b:	74 05                	je     8048712 <_init+0x1e>
 804870d:	e8 be 01 00 00       	call   80488d0 <__sprintf_chk@plt+0x10>
 8048712:	83 c4 08             	add    $0x8,%esp
 8048715:	5b                   	pop    %ebx
 8048716:	c3                   	ret    

Disassembly of section .plt:

08048720 <read@plt-0x10>:
 8048720:	ff 35 04 c0 04 08    	pushl  0x804c004
 8048726:	ff 25 08 c0 04 08    	jmp    *0x804c008
 804872c:	00 00                	add    %al,(%eax)
	...

08048730 <read@plt>:
 8048730:	ff 25 0c c0 04 08    	jmp    *0x804c00c
 8048736:	68 00 00 00 00       	push   $0x0
 804873b:	e9 e0 ff ff ff       	jmp    8048720 <_init+0x2c>

08048740 <fflush@plt>:
 8048740:	ff 25 10 c0 04 08    	jmp    *0x804c010
 8048746:	68 08 00 00 00       	push   $0x8
 804874b:	e9 d0 ff ff ff       	jmp    8048720 <_init+0x2c>

08048750 <fgets@plt>:
 8048750:	ff 25 14 c0 04 08    	jmp    *0x804c014
 8048756:	68 10 00 00 00       	push   $0x10
 804875b:	e9 c0 ff ff ff       	jmp    8048720 <_init+0x2c>

08048760 <signal@plt>:
 8048760:	ff 25 18 c0 04 08    	jmp    *0x804c018
 8048766:	68 18 00 00 00       	push   $0x18
 804876b:	e9 b0 ff ff ff       	jmp    8048720 <_init+0x2c>

08048770 <sleep@plt>:
 8048770:	ff 25 1c c0 04 08    	jmp    *0x804c01c
 8048776:	68 20 00 00 00       	push   $0x20
 804877b:	e9 a0 ff ff ff       	jmp    8048720 <_init+0x2c>

08048780 <alarm@plt>:
 8048780:	ff 25 20 c0 04 08    	jmp    *0x804c020
 8048786:	68 28 00 00 00       	push   $0x28
 804878b:	e9 90 ff ff ff       	jmp    8048720 <_init+0x2c>

08048790 <__stack_chk_fail@plt>:
 8048790:	ff 25 24 c0 04 08    	jmp    *0x804c024
 8048796:	68 30 00 00 00       	push   $0x30
 804879b:	e9 80 ff ff ff       	jmp    8048720 <_init+0x2c>

080487a0 <strcpy@plt>:
 80487a0:	ff 25 28 c0 04 08    	jmp    *0x804c028
 80487a6:	68 38 00 00 00       	push   $0x38
 80487ab:	e9 70 ff ff ff       	jmp    8048720 <_init+0x2c>

080487b0 <getenv@plt>:
 80487b0:	ff 25 2c c0 04 08    	jmp    *0x804c02c
 80487b6:	68 40 00 00 00       	push   $0x40
 80487bb:	e9 60 ff ff ff       	jmp    8048720 <_init+0x2c>

080487c0 <puts@plt>:
 80487c0:	ff 25 30 c0 04 08    	jmp    *0x804c030
 80487c6:	68 48 00 00 00       	push   $0x48
 80487cb:	e9 50 ff ff ff       	jmp    8048720 <_init+0x2c>

080487d0 <__memmove_chk@plt>:
 80487d0:	ff 25 34 c0 04 08    	jmp    *0x804c034
 80487d6:	68 50 00 00 00       	push   $0x50
 80487db:	e9 40 ff ff ff       	jmp    8048720 <_init+0x2c>

080487e0 <exit@plt>:
 80487e0:	ff 25 38 c0 04 08    	jmp    *0x804c038
 80487e6:	68 58 00 00 00       	push   $0x58
 80487eb:	e9 30 ff ff ff       	jmp    8048720 <_init+0x2c>

080487f0 <__libc_start_main@plt>:
 80487f0:	ff 25 3c c0 04 08    	jmp    *0x804c03c
 80487f6:	68 60 00 00 00       	push   $0x60
 80487fb:	e9 20 ff ff ff       	jmp    8048720 <_init+0x2c>

08048800 <write@plt>:
 8048800:	ff 25 40 c0 04 08    	jmp    *0x804c040
 8048806:	68 68 00 00 00       	push   $0x68
 804880b:	e9 10 ff ff ff       	jmp    8048720 <_init+0x2c>

08048810 <__isoc99_sscanf@plt>:
 8048810:	ff 25 44 c0 04 08    	jmp    *0x804c044
 8048816:	68 70 00 00 00       	push   $0x70
 804881b:	e9 00 ff ff ff       	jmp    8048720 <_init+0x2c>

08048820 <fopen@plt>:
 8048820:	ff 25 48 c0 04 08    	jmp    *0x804c048
 8048826:	68 78 00 00 00       	push   $0x78
 804882b:	e9 f0 fe ff ff       	jmp    8048720 <_init+0x2c>

08048830 <__errno_location@plt>:
 8048830:	ff 25 4c c0 04 08    	jmp    *0x804c04c
 8048836:	68 80 00 00 00       	push   $0x80
 804883b:	e9 e0 fe ff ff       	jmp    8048720 <_init+0x2c>

08048840 <__printf_chk@plt>:
 8048840:	ff 25 50 c0 04 08    	jmp    *0x804c050
 8048846:	68 88 00 00 00       	push   $0x88
 804884b:	e9 d0 fe ff ff       	jmp    8048720 <_init+0x2c>

08048850 <socket@plt>:
 8048850:	ff 25 54 c0 04 08    	jmp    *0x804c054
 8048856:	68 90 00 00 00       	push   $0x90
 804885b:	e9 c0 fe ff ff       	jmp    8048720 <_init+0x2c>

08048860 <__fprintf_chk@plt>:
 8048860:	ff 25 58 c0 04 08    	jmp    *0x804c058
 8048866:	68 98 00 00 00       	push   $0x98
 804886b:	e9 b0 fe ff ff       	jmp    8048720 <_init+0x2c>

08048870 <gethostbyname@plt>:
 8048870:	ff 25 5c c0 04 08    	jmp    *0x804c05c
 8048876:	68 a0 00 00 00       	push   $0xa0
 804887b:	e9 a0 fe ff ff       	jmp    8048720 <_init+0x2c>

08048880 <strtol@plt>:
 8048880:	ff 25 60 c0 04 08    	jmp    *0x804c060
 8048886:	68 a8 00 00 00       	push   $0xa8
 804888b:	e9 90 fe ff ff       	jmp    8048720 <_init+0x2c>

08048890 <connect@plt>:
 8048890:	ff 25 64 c0 04 08    	jmp    *0x804c064
 8048896:	68 b0 00 00 00       	push   $0xb0
 804889b:	e9 80 fe ff ff       	jmp    8048720 <_init+0x2c>

080488a0 <close@plt>:
 80488a0:	ff 25 68 c0 04 08    	jmp    *0x804c068
 80488a6:	68 b8 00 00 00       	push   $0xb8
 80488ab:	e9 70 fe ff ff       	jmp    8048720 <_init+0x2c>

080488b0 <__ctype_b_loc@plt>:
 80488b0:	ff 25 6c c0 04 08    	jmp    *0x804c06c
 80488b6:	68 c0 00 00 00       	push   $0xc0
 80488bb:	e9 60 fe ff ff       	jmp    8048720 <_init+0x2c>

080488c0 <__sprintf_chk@plt>:
 80488c0:	ff 25 70 c0 04 08    	jmp    *0x804c070
 80488c6:	68 c8 00 00 00       	push   $0xc8
 80488cb:	e9 50 fe ff ff       	jmp    8048720 <_init+0x2c>

Disassembly of section .plt.got:

080488d0 <.plt.got>:
 80488d0:	ff 25 fc bf 04 08    	jmp    *0x804bffc
 80488d6:	66 90                	xchg   %ax,%ax

Disassembly of section .text:

080488e0 <_start>:
 80488e0:	31 ed                	xor    %ebp,%ebp
 80488e2:	5e                   	pop    %esi
 80488e3:	89 e1                	mov    %esp,%ecx
 80488e5:	83 e4 f0             	and    $0xfffffff0,%esp
 80488e8:	50                   	push   %eax
 80488e9:	54                   	push   %esp
 80488ea:	52                   	push   %edx
 80488eb:	68 b0 9e 04 08       	push   $0x8049eb0
 80488f0:	68 50 9e 04 08       	push   $0x8049e50
 80488f5:	51                   	push   %ecx
 80488f6:	56                   	push   %esi
 80488f7:	68 db 89 04 08       	push   $0x80489db
 80488fc:	e8 ef fe ff ff       	call   80487f0 <__libc_start_main@plt>
 8048901:	f4                   	hlt    
 8048902:	66 90                	xchg   %ax,%ax
 8048904:	66 90                	xchg   %ax,%ax
 8048906:	66 90                	xchg   %ax,%ax
 8048908:	66 90                	xchg   %ax,%ax
 804890a:	66 90                	xchg   %ax,%ax
 804890c:	66 90                	xchg   %ax,%ax
 804890e:	66 90                	xchg   %ax,%ax

08048910 <__x86.get_pc_thunk.bx>:
 8048910:	8b 1c 24             	mov    (%esp),%ebx
 8048913:	c3                   	ret    
 8048914:	66 90                	xchg   %ax,%ax
 8048916:	66 90                	xchg   %ax,%ax
 8048918:	66 90                	xchg   %ax,%ax
 804891a:	66 90                	xchg   %ax,%ax
 804891c:	66 90                	xchg   %ax,%ax
 804891e:	66 90                	xchg   %ax,%ax

08048920 <deregister_tm_clones>:
 8048920:	b8 a3 c3 04 08       	mov    $0x804c3a3,%eax
 8048925:	2d a0 c3 04 08       	sub    $0x804c3a0,%eax
 804892a:	83 f8 06             	cmp    $0x6,%eax
 804892d:	76 1a                	jbe    8048949 <deregister_tm_clones+0x29>
 804892f:	b8 00 00 00 00       	mov    $0x0,%eax
 8048934:	85 c0                	test   %eax,%eax
 8048936:	74 11                	je     8048949 <deregister_tm_clones+0x29>
 8048938:	55                   	push   %ebp
 8048939:	89 e5                	mov    %esp,%ebp
 804893b:	83 ec 14             	sub    $0x14,%esp
 804893e:	68 a0 c3 04 08       	push   $0x804c3a0
 8048943:	ff d0                	call   *%eax
 8048945:	83 c4 10             	add    $0x10,%esp
 8048948:	c9                   	leave  
 8048949:	f3 c3                	repz ret 
 804894b:	90                   	nop
 804894c:	8d 74 26 00          	lea    0x0(%esi,%eiz,1),%esi

08048950 <register_tm_clones>:
 8048950:	b8 a0 c3 04 08       	mov    $0x804c3a0,%eax
 8048955:	2d a0 c3 04 08       	sub    $0x804c3a0,%eax
 804895a:	c1 f8 02             	sar    $0x2,%eax
 804895d:	89 c2                	mov    %eax,%edx
 804895f:	c1 ea 1f             	shr    $0x1f,%edx
 8048962:	01 d0                	add    %edx,%eax
 8048964:	d1 f8                	sar    %eax
 8048966:	74 1b                	je     8048983 <register_tm_clones+0x33>
 8048968:	ba 00 00 00 00       	mov    $0x0,%edx
 804896d:	85 d2                	test   %edx,%edx
 804896f:	74 12                	je     8048983 <register_tm_clones+0x33>
 8048971:	55                   	push   %ebp
 8048972:	89 e5                	mov    %esp,%ebp
 8048974:	83 ec 10             	sub    $0x10,%esp
 8048977:	50                   	push   %eax
 8048978:	68 a0 c3 04 08       	push   $0x804c3a0
 804897d:	ff d2                	call   *%edx
 804897f:	83 c4 10             	add    $0x10,%esp
 8048982:	c9                   	leave  
 8048983:	f3 c3                	repz ret 
 8048985:	8d 74 26 00          	lea    0x0(%esi,%eiz,1),%esi
 8048989:	8d bc 27 00 00 00 00 	lea    0x0(%edi,%eiz,1),%edi

08048990 <__do_global_dtors_aux>:
 8048990:	80 3d c8 c3 04 08 00 	cmpb   $0x0,0x804c3c8
 8048997:	75 13                	jne    80489ac <__do_global_dtors_aux+0x1c>
 8048999:	55                   	push   %ebp
 804899a:	89 e5                	mov    %esp,%ebp
 804899c:	83 ec 08             	sub    $0x8,%esp
 804899f:	e8 7c ff ff ff       	call   8048920 <deregister_tm_clones>
 80489a4:	c6 05 c8 c3 04 08 01 	movb   $0x1,0x804c3c8
 80489ab:	c9                   	leave  
 80489ac:	f3 c3                	repz ret 
 80489ae:	66 90                	xchg   %ax,%ax

080489b0 <frame_dummy>:
 80489b0:	b8 10 bf 04 08       	mov    $0x804bf10,%eax
 80489b5:	8b 10                	mov    (%eax),%edx
 80489b7:	85 d2                	test   %edx,%edx
 80489b9:	75 05                	jne    80489c0 <frame_dummy+0x10>
 80489bb:	eb 93                	jmp    8048950 <register_tm_clones>
 80489bd:	8d 76 00             	lea    0x0(%esi),%esi
 80489c0:	ba 00 00 00 00       	mov    $0x0,%edx
 80489c5:	85 d2                	test   %edx,%edx
 80489c7:	74 f2                	je     80489bb <frame_dummy+0xb>
 80489c9:	55                   	push   %ebp
 80489ca:	89 e5                	mov    %esp,%ebp
 80489cc:	83 ec 14             	sub    $0x14,%esp
 80489cf:	50                   	push   %eax
 80489d0:	ff d2                	call   *%edx
 80489d2:	83 c4 10             	add    $0x10,%esp
 80489d5:	c9                   	leave  
 80489d6:	e9 75 ff ff ff       	jmp    8048950 <register_tm_clones>

080489db <main>:
 80489db:	8d 4c 24 04          	lea    0x4(%esp),%ecx
 80489df:	83 e4 f0             	and    $0xfffffff0,%esp
 80489e2:	ff 71 fc             	pushl  -0x4(%ecx)
 80489e5:	55                   	push   %ebp
 80489e6:	89 e5                	mov    %esp,%ebp
 80489e8:	53                   	push   %ebx
 80489e9:	51                   	push   %ecx
 80489ea:	8b 01                	mov    (%ecx),%eax
 80489ec:	8b 59 04             	mov    0x4(%ecx),%ebx
 80489ef:	83 f8 01             	cmp    $0x1,%eax
 80489f2:	75 0c                	jne    8048a00 <main+0x25>
 80489f4:	a1 c0 c3 04 08       	mov    0x804c3c0,%eax
 80489f9:	a3 d0 c3 04 08       	mov    %eax,0x804c3d0
 80489fe:	eb 5b                	jmp    8048a5b <main+0x80>
 8048a00:	83 f8 02             	cmp    $0x2,%eax
 8048a03:	75 39                	jne    8048a3e <main+0x63>
 8048a05:	83 ec 08             	sub    $0x8,%esp
 8048a08:	68 d0 9e 04 08       	push   $0x8049ed0
 8048a0d:	ff 73 04             	pushl  0x4(%ebx)
 8048a10:	e8 0b fe ff ff       	call   8048820 <fopen@plt>
 8048a15:	a3 d0 c3 04 08       	mov    %eax,0x804c3d0
 8048a1a:	83 c4 10             	add    $0x10,%esp
 8048a1d:	85 c0                	test   %eax,%eax
 8048a1f:	75 3a                	jne    8048a5b <main+0x80>
 8048a21:	ff 73 04             	pushl  0x4(%ebx)
 8048a24:	ff 33                	pushl  (%ebx)
 8048a26:	68 d2 9e 04 08       	push   $0x8049ed2
 8048a2b:	6a 01                	push   $0x1
 8048a2d:	e8 0e fe ff ff       	call   8048840 <__printf_chk@plt>
 8048a32:	c7 04 24 08 00 00 00 	movl   $0x8,(%esp)
 8048a39:	e8 a2 fd ff ff       	call   80487e0 <exit@plt>
 8048a3e:	83 ec 04             	sub    $0x4,%esp
 8048a41:	ff 33                	pushl  (%ebx)
 8048a43:	68 ef 9e 04 08       	push   $0x8049eef
 8048a48:	6a 01                	push   $0x1
 8048a4a:	e8 f1 fd ff ff       	call   8048840 <__printf_chk@plt>
 8048a4f:	c7 04 24 08 00 00 00 	movl   $0x8,(%esp)
 8048a56:	e8 85 fd ff ff       	call   80487e0 <exit@plt>
 8048a5b:	e8 20 06 00 00       	call   8049080 <initialize_bomb>
 8048a60:	83 ec 0c             	sub    $0xc,%esp
 8048a63:	68 54 9f 04 08       	push   $0x8049f54
 8048a68:	e8 53 fd ff ff       	call   80487c0 <puts@plt>
 8048a6d:	c7 04 24 90 9f 04 08 	movl   $0x8049f90,(%esp)
 8048a74:	e8 47 fd ff ff       	call   80487c0 <puts@plt>
 8048a79:	e8 f4 06 00 00       	call   8049172 <read_line>
 8048a7e:	89 04 24             	mov    %eax,(%esp)
 8048a81:	e8 ad 00 00 00       	call   8048b33 <phase_1>
 8048a86:	e8 e0 07 00 00       	call   804926b <phase_defused>
 8048a8b:	c7 04 24 bc 9f 04 08 	movl   $0x8049fbc,(%esp)
 8048a92:	e8 29 fd ff ff       	call   80487c0 <puts@plt>
 8048a97:	e8 d6 06 00 00       	call   8049172 <read_line>
 8048a9c:	89 04 24             	mov    %eax,(%esp)
 8048a9f:	e8 b0 00 00 00       	call   8048b54 <phase_2>
 8048aa4:	e8 c2 07 00 00       	call   804926b <phase_defused>
 8048aa9:	c7 04 24 09 9f 04 08 	movl   $0x8049f09,(%esp)
 8048ab0:	e8 0b fd ff ff       	call   80487c0 <puts@plt>
 8048ab5:	e8 b8 06 00 00       	call   8049172 <read_line>
 8048aba:	89 04 24             	mov    %eax,(%esp)
 8048abd:	e8 f3 00 00 00       	call   8048bb5 <phase_3>
 8048ac2:	e8 a4 07 00 00       	call   804926b <phase_defused>
 8048ac7:	c7 04 24 27 9f 04 08 	movl   $0x8049f27,(%esp)
 8048ace:	e8 ed fc ff ff       	call   80487c0 <puts@plt>
 8048ad3:	e8 9a 06 00 00       	call   8049172 <read_line>
 8048ad8:	89 04 24             	mov    %eax,(%esp)
 8048adb:	e8 01 02 00 00       	call   8048ce1 <phase_4>
 8048ae0:	e8 86 07 00 00       	call   804926b <phase_defused>
 8048ae5:	c7 04 24 e8 9f 04 08 	movl   $0x8049fe8,(%esp)
 8048aec:	e8 cf fc ff ff       	call   80487c0 <puts@plt>
 8048af1:	e8 7c 06 00 00       	call   8049172 <read_line>
 8048af6:	89 04 24             	mov    %eax,(%esp)
 8048af9:	e8 58 02 00 00       	call   8048d56 <phase_5>
 8048afe:	e8 68 07 00 00       	call   804926b <phase_defused>
 8048b03:	c7 04 24 36 9f 04 08 	movl   $0x8049f36,(%esp)
 8048b0a:	e8 b1 fc ff ff       	call   80487c0 <puts@plt>
 8048b0f:	e8 5e 06 00 00       	call   8049172 <read_line>
 8048b14:	89 04 24             	mov    %eax,(%esp)
 8048b17:	e8 ba 02 00 00       	call   8048dd6 <phase_6>
 8048b1c:	e8 4a 07 00 00       	call   804926b <phase_defused>
 8048b21:	83 c4 10             	add    $0x10,%esp
 8048b24:	b8 00 00 00 00       	mov    $0x0,%eax
 8048b29:	8d 65 f8             	lea    -0x8(%ebp),%esp
 8048b2c:	59                   	pop    %ecx
 8048b2d:	5b                   	pop    %ebx
 8048b2e:	5d                   	pop    %ebp
 8048b2f:	8d 61 fc             	lea    -0x4(%ecx),%esp
 8048b32:	c3                   	ret    

08048b33 <phase_1>:
 8048b33:	83 ec 14             	sub    $0x14,%esp
 8048b36:	68 0c a0 04 08       	push   $0x804a00c
 8048b3b:	ff 74 24 1c          	pushl  0x1c(%esp)
 8048b3f:	e8 d7 04 00 00       	call   804901b <strings_not_equal>
 8048b44:	83 c4 10             	add    $0x10,%esp
 8048b47:	85 c0                	test   %eax,%eax
 8048b49:	74 05                	je     8048b50 <phase_1+0x1d>
 8048b4b:	e8 c2 05 00 00       	call   8049112 <explode_bomb>
 8048b50:	83 c4 0c             	add    $0xc,%esp
 8048b53:	c3                   	ret    

08048b54 <phase_2>:
 8048b54:	53                   	push   %ebx
 8048b55:	83 ec 30             	sub    $0x30,%esp
 8048b58:	65 a1 14 00 00 00    	mov    %gs:0x14,%eax
 8048b5e:	89 44 24 24          	mov    %eax,0x24(%esp)
 8048b62:	31 c0                	xor    %eax,%eax
 8048b64:	8d 44 24 0c          	lea    0xc(%esp),%eax
 8048b68:	50                   	push   %eax
 8048b69:	ff 74 24 3c          	pushl  0x3c(%esp)
 8048b6d:	e8 c5 05 00 00       	call   8049137 <read_six_numbers>
 8048b72:	83 c4 10             	add    $0x10,%esp
 8048b75:	83 7c 24 04 00       	cmpl   $0x0,0x4(%esp)
 8048b7a:	79 05                	jns    8048b81 <phase_2+0x2d>
 8048b7c:	e8 91 05 00 00       	call   8049112 <explode_bomb>
 8048b81:	bb 01 00 00 00       	mov    $0x1,%ebx
 8048b86:	89 d8                	mov    %ebx,%eax
 8048b88:	03 04 9c             	add    (%esp,%ebx,4),%eax
 8048b8b:	39 44 9c 04          	cmp    %eax,0x4(%esp,%ebx,4)
 8048b8f:	74 05                	je     8048b96 <phase_2+0x42>
 8048b91:	e8 7c 05 00 00       	call   8049112 <explode_bomb>
 8048b96:	83 c3 01             	add    $0x1,%ebx
 8048b99:	83 fb 06             	cmp    $0x6,%ebx
 8048b9c:	75 e8                	jne    8048b86 <phase_2+0x32>
 8048b9e:	8b 44 24 1c          	mov    0x1c(%esp),%eax
 8048ba2:	65 33 05 14 00 00 00 	xor    %gs:0x14,%eax
 8048ba9:	74 05                	je     8048bb0 <phase_2+0x5c>
 8048bab:	e8 e0 fb ff ff       	call   8048790 <__stack_chk_fail@plt>
 8048bb0:	83 c4 28             	add    $0x28,%esp
 8048bb3:	5b                   	pop    %ebx
 8048bb4:	c3                   	ret    

08048bb5 <phase_3>:
 8048bb5:	83 ec 1c             	sub    $0x1c,%esp
 8048bb8:	65 a1 14 00 00 00    	mov    %gs:0x14,%eax
 8048bbe:	89 44 24 0c          	mov    %eax,0xc(%esp)
 8048bc2:	31 c0                	xor    %eax,%eax
 8048bc4:	8d 44 24 08          	lea    0x8(%esp),%eax
 8048bc8:	50                   	push   %eax
 8048bc9:	8d 44 24 08          	lea    0x8(%esp),%eax
 8048bcd:	50                   	push   %eax
 8048bce:	68 9b a1 04 08       	push   $0x804a19b
 8048bd3:	ff 74 24 2c          	pushl  0x2c(%esp)
 8048bd7:	e8 34 fc ff ff       	call   8048810 <__isoc99_sscanf@plt>
 8048bdc:	83 c4 10             	add    $0x10,%esp
 8048bdf:	83 f8 01             	cmp    $0x1,%eax
 8048be2:	7f 05                	jg     8048be9 <phase_3+0x34>
 8048be4:	e8 29 05 00 00       	call   8049112 <explode_bomb>
 8048be9:	83 7c 24 04 07       	cmpl   $0x7,0x4(%esp)
 8048bee:	77 66                	ja     8048c56 <phase_3+0xa1>
 8048bf0:	8b 44 24 04          	mov    0x4(%esp),%eax
 8048bf4:	ff 24 85 5c a0 04 08 	jmp    *0x804a05c(,%eax,4)
 8048bfb:	b8 2e 02 00 00       	mov    $0x22e,%eax
 8048c00:	eb 05                	jmp    8048c07 <phase_3+0x52>
 8048c02:	b8 00 00 00 00       	mov    $0x0,%eax
 8048c07:	2d 76 02 00 00       	sub    $0x276,%eax
 8048c0c:	eb 05                	jmp    8048c13 <phase_3+0x5e>
 8048c0e:	b8 00 00 00 00       	mov    $0x0,%eax
 8048c13:	05 1e 03 00 00       	add    $0x31e,%eax
 8048c18:	eb 05                	jmp    8048c1f <phase_3+0x6a>
 8048c1a:	b8 00 00 00 00       	mov    $0x0,%eax
 8048c1f:	2d 31 01 00 00       	sub    $0x131,%eax
 8048c24:	eb 05                	jmp    8048c2b <phase_3+0x76>
 8048c26:	b8 00 00 00 00       	mov    $0x0,%eax
 8048c2b:	05 31 01 00 00       	add    $0x131,%eax
 8048c30:	eb 05                	jmp    8048c37 <phase_3+0x82>
 8048c32:	b8 00 00 00 00       	mov    $0x0,%eax
 8048c37:	2d 31 01 00 00       	sub    $0x131,%eax
 8048c3c:	eb 05                	jmp    8048c43 <phase_3+0x8e>
 8048c3e:	b8 00 00 00 00       	mov    $0x0,%eax
 8048c43:	05 31 01 00 00       	add    $0x131,%eax
 8048c48:	eb 05                	jmp    8048c4f <phase_3+0x9a>
 8048c4a:	b8 00 00 00 00       	mov    $0x0,%eax
 8048c4f:	2d 31 01 00 00       	sub    $0x131,%eax
 8048c54:	eb 0a                	jmp    8048c60 <phase_3+0xab>
 8048c56:	e8 b7 04 00 00       	call   8049112 <explode_bomb>
 8048c5b:	b8 00 00 00 00       	mov    $0x0,%eax
 8048c60:	83 7c 24 04 05       	cmpl   $0x5,0x4(%esp)
 8048c65:	7f 06                	jg     8048c6d <phase_3+0xb8>
 8048c67:	3b 44 24 08          	cmp    0x8(%esp),%eax
 8048c6b:	74 05                	je     8048c72 <phase_3+0xbd>
 8048c6d:	e8 a0 04 00 00       	call   8049112 <explode_bomb>
 8048c72:	8b 44 24 0c          	mov    0xc(%esp),%eax
 8048c76:	65 33 05 14 00 00 00 	xor    %gs:0x14,%eax
 8048c7d:	74 05                	je     8048c84 <phase_3+0xcf>
 8048c7f:	e8 0c fb ff ff       	call   8048790 <__stack_chk_fail@plt>
 8048c84:	83 c4 1c             	add    $0x1c,%esp
 8048c87:	c3                   	ret    

08048c88 <func4>:
 8048c88:	56                   	push   %esi
 8048c89:	53                   	push   %ebx
 8048c8a:	83 ec 04             	sub    $0x4,%esp
 8048c8d:	8b 54 24 10          	mov    0x10(%esp),%edx
 8048c91:	8b 74 24 14          	mov    0x14(%esp),%esi
 8048c95:	8b 4c 24 18          	mov    0x18(%esp),%ecx
 8048c99:	89 c8                	mov    %ecx,%eax
 8048c9b:	29 f0                	sub    %esi,%eax
 8048c9d:	89 c3                	mov    %eax,%ebx
 8048c9f:	c1 eb 1f             	shr    $0x1f,%ebx
 8048ca2:	01 d8                	add    %ebx,%eax
 8048ca4:	d1 f8                	sar    %eax
 8048ca6:	8d 1c 30             	lea    (%eax,%esi,1),%ebx
 8048ca9:	39 d3                	cmp    %edx,%ebx
 8048cab:	7e 15                	jle    8048cc2 <func4+0x3a>
 8048cad:	83 ec 04             	sub    $0x4,%esp
 8048cb0:	8d 43 ff             	lea    -0x1(%ebx),%eax
 8048cb3:	50                   	push   %eax
 8048cb4:	56                   	push   %esi
 8048cb5:	52                   	push   %edx
 8048cb6:	e8 cd ff ff ff       	call   8048c88 <func4>
 8048cbb:	83 c4 10             	add    $0x10,%esp
 8048cbe:	01 d8                	add    %ebx,%eax
 8048cc0:	eb 19                	jmp    8048cdb <func4+0x53>
 8048cc2:	89 d8                	mov    %ebx,%eax
 8048cc4:	39 d3                	cmp    %edx,%ebx
 8048cc6:	7d 13                	jge    8048cdb <func4+0x53>
 8048cc8:	83 ec 04             	sub    $0x4,%esp
 8048ccb:	51                   	push   %ecx
 8048ccc:	8d 43 01             	lea    0x1(%ebx),%eax
 8048ccf:	50                   	push   %eax
 8048cd0:	52                   	push   %edx
 8048cd1:	e8 b2 ff ff ff       	call   8048c88 <func4>
 8048cd6:	83 c4 10             	add    $0x10,%esp
 8048cd9:	01 d8                	add    %ebx,%eax
 8048cdb:	83 c4 04             	add    $0x4,%esp
 8048cde:	5b                   	pop    %ebx
 8048cdf:	5e                   	pop    %esi
 8048ce0:	c3                   	ret    

08048ce1 <phase_4>:
 8048ce1:	83 ec 1c             	sub    $0x1c,%esp
 8048ce4:	65 a1 14 00 00 00    	mov    %gs:0x14,%eax
 8048cea:	89 44 24 0c          	mov    %eax,0xc(%esp)
 8048cee:	31 c0                	xor    %eax,%eax
 8048cf0:	8d 44 24 08          	lea    0x8(%esp),%eax
 8048cf4:	50                   	push   %eax
 8048cf5:	8d 44 24 08          	lea    0x8(%esp),%eax
 8048cf9:	50                   	push   %eax
 8048cfa:	68 9b a1 04 08       	push   $0x804a19b
 8048cff:	ff 74 24 2c          	pushl  0x2c(%esp)
 8048d03:	e8 08 fb ff ff       	call   8048810 <__isoc99_sscanf@plt>
 8048d08:	83 c4 10             	add    $0x10,%esp
 8048d0b:	83 f8 02             	cmp    $0x2,%eax
 8048d0e:	75 07                	jne    8048d17 <phase_4+0x36>
 8048d10:	83 7c 24 04 0e       	cmpl   $0xe,0x4(%esp)
 8048d15:	76 05                	jbe    8048d1c <phase_4+0x3b>
 8048d17:	e8 f6 03 00 00       	call   8049112 <explode_bomb>
 8048d1c:	83 ec 04             	sub    $0x4,%esp
 8048d1f:	6a 0e                	push   $0xe
 8048d21:	6a 00                	push   $0x0
 8048d23:	ff 74 24 10          	pushl  0x10(%esp)
 8048d27:	e8 5c ff ff ff       	call   8048c88 <func4>
 8048d2c:	83 c4 10             	add    $0x10,%esp
 8048d2f:	83 f8 12             	cmp    $0x12,%eax
 8048d32:	75 07                	jne    8048d3b <phase_4+0x5a>
 8048d34:	83 7c 24 08 12       	cmpl   $0x12,0x8(%esp)
 8048d39:	74 05                	je     8048d40 <phase_4+0x5f>
 8048d3b:	e8 d2 03 00 00       	call   8049112 <explode_bomb>
 8048d40:	8b 44 24 0c          	mov    0xc(%esp),%eax
 8048d44:	65 33 05 14 00 00 00 	xor    %gs:0x14,%eax
 8048d4b:	74 05                	je     8048d52 <phase_4+0x71>
 8048d4d:	e8 3e fa ff ff       	call   8048790 <__stack_chk_fail@plt>
 8048d52:	83 c4 1c             	add    $0x1c,%esp
 8048d55:	c3                   	ret    

08048d56 <phase_5>:
 8048d56:	53                   	push   %ebx
 8048d57:	83 ec 24             	sub    $0x24,%esp
 8048d5a:	8b 5c 24 2c          	mov    0x2c(%esp),%ebx
 8048d5e:	65 a1 14 00 00 00    	mov    %gs:0x14,%eax
 8048d64:	89 44 24 18          	mov    %eax,0x18(%esp)
 8048d68:	31 c0                	xor    %eax,%eax
 8048d6a:	53                   	push   %ebx
 8048d6b:	e8 8c 02 00 00       	call   8048ffc <string_length>
 8048d70:	83 c4 10             	add    $0x10,%esp
 8048d73:	83 f8 06             	cmp    $0x6,%eax
 8048d76:	74 05                	je     8048d7d <phase_5+0x27>
 8048d78:	e8 95 03 00 00       	call   8049112 <explode_bomb>
 8048d7d:	b8 00 00 00 00       	mov    $0x0,%eax
 8048d82:	0f b6 14 03          	movzbl (%ebx,%eax,1),%edx
 8048d86:	83 e2 0f             	and    $0xf,%edx
 8048d89:	0f b6 92 7c a0 04 08 	movzbl 0x804a07c(%edx),%edx
 8048d90:	88 54 04 05          	mov    %dl,0x5(%esp,%eax,1)
 8048d94:	83 c0 01             	add    $0x1,%eax
 8048d97:	83 f8 06             	cmp    $0x6,%eax
 8048d9a:	75 e6                	jne    8048d82 <phase_5+0x2c>
 8048d9c:	c6 44 24 0b 00       	movb   $0x0,0xb(%esp)
 8048da1:	83 ec 08             	sub    $0x8,%esp
 8048da4:	68 52 a0 04 08       	push   $0x804a052
 8048da9:	8d 44 24 11          	lea    0x11(%esp),%eax
 8048dad:	50                   	push   %eax
 8048dae:	e8 68 02 00 00       	call   804901b <strings_not_equal>
 8048db3:	83 c4 10             	add    $0x10,%esp
 8048db6:	85 c0                	test   %eax,%eax
 8048db8:	74 05                	je     8048dbf <phase_5+0x69>
 8048dba:	e8 53 03 00 00       	call   8049112 <explode_bomb>
 8048dbf:	8b 44 24 0c          	mov    0xc(%esp),%eax
 8048dc3:	65 33 05 14 00 00 00 	xor    %gs:0x14,%eax
 8048dca:	74 05                	je     8048dd1 <phase_5+0x7b>
 8048dcc:	e8 bf f9 ff ff       	call   8048790 <__stack_chk_fail@plt>
 8048dd1:	83 c4 18             	add    $0x18,%esp
 8048dd4:	5b                   	pop    %ebx
 8048dd5:	c3                   	ret    

08048dd6 <phase_6>:
 8048dd6:	56                   	push   %esi
 8048dd7:	53                   	push   %ebx
 8048dd8:	83 ec 4c             	sub    $0x4c,%esp
 8048ddb:	65 a1 14 00 00 00    	mov    %gs:0x14,%eax
 8048de1:	89 44 24 44          	mov    %eax,0x44(%esp)
 8048de5:	31 c0                	xor    %eax,%eax
 8048de7:	8d 44 24 14          	lea    0x14(%esp),%eax
 8048deb:	50                   	push   %eax
 8048dec:	ff 74 24 5c          	pushl  0x5c(%esp)
 8048df0:	e8 42 03 00 00       	call   8049137 <read_six_numbers>
 8048df5:	83 c4 10             	add    $0x10,%esp
 8048df8:	be 00 00 00 00       	mov    $0x0,%esi
 8048dfd:	8b 44 b4 0c          	mov    0xc(%esp,%esi,4),%eax
 8048e01:	83 e8 01             	sub    $0x1,%eax
 8048e04:	83 f8 05             	cmp    $0x5,%eax
 8048e07:	76 05                	jbe    8048e0e <phase_6+0x38>
 8048e09:	e8 04 03 00 00       	call   8049112 <explode_bomb>
 8048e0e:	83 c6 01             	add    $0x1,%esi
 8048e11:	83 fe 06             	cmp    $0x6,%esi
 8048e14:	74 1b                	je     8048e31 <phase_6+0x5b>
 8048e16:	89 f3                	mov    %esi,%ebx
 8048e18:	8b 44 9c 0c          	mov    0xc(%esp,%ebx,4),%eax
 8048e1c:	39 44 b4 08          	cmp    %eax,0x8(%esp,%esi,4)
 8048e20:	75 05                	jne    8048e27 <phase_6+0x51>
 8048e22:	e8 eb 02 00 00       	call   8049112 <explode_bomb>
 8048e27:	83 c3 01             	add    $0x1,%ebx
 8048e2a:	83 fb 05             	cmp    $0x5,%ebx
 8048e2d:	7e e9                	jle    8048e18 <phase_6+0x42>
 8048e2f:	eb cc                	jmp    8048dfd <phase_6+0x27>
 8048e31:	8d 44 24 0c          	lea    0xc(%esp),%eax
 8048e35:	8d 5c 24 24          	lea    0x24(%esp),%ebx
 8048e39:	b9 07 00 00 00       	mov    $0x7,%ecx
 8048e3e:	89 ca                	mov    %ecx,%edx
 8048e40:	2b 10                	sub    (%eax),%edx
 8048e42:	89 10                	mov    %edx,(%eax)
 8048e44:	83 c0 04             	add    $0x4,%eax
 8048e47:	39 c3                	cmp    %eax,%ebx
 8048e49:	75 f3                	jne    8048e3e <phase_6+0x68>
 8048e4b:	bb 00 00 00 00       	mov    $0x0,%ebx
 8048e50:	eb 16                	jmp    8048e68 <phase_6+0x92>
 8048e52:	8b 52 08             	mov    0x8(%edx),%edx
 8048e55:	83 c0 01             	add    $0x1,%eax
 8048e58:	39 c8                	cmp    %ecx,%eax
 8048e5a:	75 f6                	jne    8048e52 <phase_6+0x7c>
 8048e5c:	89 54 b4 24          	mov    %edx,0x24(%esp,%esi,4)
 8048e60:	83 c3 01             	add    $0x1,%ebx
 8048e63:	83 fb 06             	cmp    $0x6,%ebx
 8048e66:	74 17                	je     8048e7f <phase_6+0xa9>
 8048e68:	89 de                	mov    %ebx,%esi
 8048e6a:	8b 4c 9c 0c          	mov    0xc(%esp,%ebx,4),%ecx
 8048e6e:	b8 01 00 00 00       	mov    $0x1,%eax
 8048e73:	ba 3c c1 04 08       	mov    $0x804c13c,%edx
 8048e78:	83 f9 01             	cmp    $0x1,%ecx
 8048e7b:	7f d5                	jg     8048e52 <phase_6+0x7c>
 8048e7d:	eb dd                	jmp    8048e5c <phase_6+0x86>
 8048e7f:	8b 5c 24 24          	mov    0x24(%esp),%ebx
 8048e83:	8d 44 24 24          	lea    0x24(%esp),%eax
 8048e87:	8d 74 24 38          	lea    0x38(%esp),%esi
 8048e8b:	89 d9                	mov    %ebx,%ecx
 8048e8d:	8b 50 04             	mov    0x4(%eax),%edx
 8048e90:	89 51 08             	mov    %edx,0x8(%ecx)
 8048e93:	83 c0 04             	add    $0x4,%eax
 8048e96:	89 d1                	mov    %edx,%ecx
 8048e98:	39 c6                	cmp    %eax,%esi
 8048e9a:	75 f1                	jne    8048e8d <phase_6+0xb7>
 8048e9c:	c7 42 08 00 00 00 00 	movl   $0x0,0x8(%edx)
 8048ea3:	be 05 00 00 00       	mov    $0x5,%esi
 8048ea8:	8b 43 08             	mov    0x8(%ebx),%eax
 8048eab:	8b 00                	mov    (%eax),%eax
 8048ead:	39 03                	cmp    %eax,(%ebx)
 8048eaf:	7d 05                	jge    8048eb6 <phase_6+0xe0>
 8048eb1:	e8 5c 02 00 00       	call   8049112 <explode_bomb>
 8048eb6:	8b 5b 08             	mov    0x8(%ebx),%ebx
 8048eb9:	83 ee 01             	sub    $0x1,%esi
 8048ebc:	75 ea                	jne    8048ea8 <phase_6+0xd2>
 8048ebe:	8b 44 24 3c          	mov    0x3c(%esp),%eax
 8048ec2:	65 33 05 14 00 00 00 	xor    %gs:0x14,%eax
 8048ec9:	74 05                	je     8048ed0 <phase_6+0xfa>
 8048ecb:	e8 c0 f8 ff ff       	call   8048790 <__stack_chk_fail@plt>
 8048ed0:	83 c4 44             	add    $0x44,%esp
 8048ed3:	5b                   	pop    %ebx
 8048ed4:	5e                   	pop    %esi
 8048ed5:	c3                   	ret    

08048ed6 <fun7>:
 8048ed6:	53                   	push   %ebx
 8048ed7:	83 ec 08             	sub    $0x8,%esp
 8048eda:	8b 54 24 10          	mov    0x10(%esp),%edx
 8048ede:	8b 4c 24 14          	mov    0x14(%esp),%ecx
 8048ee2:	85 d2                	test   %edx,%edx
 8048ee4:	74 37                	je     8048f1d <fun7+0x47>
 8048ee6:	8b 1a                	mov    (%edx),%ebx
 8048ee8:	39 cb                	cmp    %ecx,%ebx
 8048eea:	7e 13                	jle    8048eff <fun7+0x29>
 8048eec:	83 ec 08             	sub    $0x8,%esp
 8048eef:	51                   	push   %ecx
 8048ef0:	ff 72 04             	pushl  0x4(%edx)
 8048ef3:	e8 de ff ff ff       	call   8048ed6 <fun7>
 8048ef8:	83 c4 10             	add    $0x10,%esp
 8048efb:	01 c0                	add    %eax,%eax
 8048efd:	eb 23                	jmp    8048f22 <fun7+0x4c>
 8048eff:	b8 00 00 00 00       	mov    $0x0,%eax
 8048f04:	39 cb                	cmp    %ecx,%ebx
 8048f06:	74 1a                	je     8048f22 <fun7+0x4c>
 8048f08:	83 ec 08             	sub    $0x8,%esp
 8048f0b:	51                   	push   %ecx
 8048f0c:	ff 72 08             	pushl  0x8(%edx)
 8048f0f:	e8 c2 ff ff ff       	call   8048ed6 <fun7>
 8048f14:	83 c4 10             	add    $0x10,%esp
 8048f17:	8d 44 00 01          	lea    0x1(%eax,%eax,1),%eax
 8048f1b:	eb 05                	jmp    8048f22 <fun7+0x4c>
 8048f1d:	b8 ff ff ff ff       	mov    $0xffffffff,%eax
 8048f22:	83 c4 08             	add    $0x8,%esp
 8048f25:	5b                   	pop    %ebx
 8048f26:	c3                   	ret    

08048f27 <secret_phase>:
 8048f27:	53                   	push   %ebx
 8048f28:	83 ec 08             	sub    $0x8,%esp
 8048f2b:	e8 42 02 00 00       	call   8049172 <read_line>
 8048f30:	83 ec 04             	sub    $0x4,%esp
 8048f33:	6a 0a                	push   $0xa
 8048f35:	6a 00                	push   $0x0
 8048f37:	50                   	push   %eax
 8048f38:	e8 43 f9 ff ff       	call   8048880 <strtol@plt>
 8048f3d:	89 c3                	mov    %eax,%ebx
 8048f3f:	8d 40 ff             	lea    -0x1(%eax),%eax
 8048f42:	83 c4 10             	add    $0x10,%esp
 8048f45:	3d e8 03 00 00       	cmp    $0x3e8,%eax
 8048f4a:	76 05                	jbe    8048f51 <secret_phase+0x2a>
 8048f4c:	e8 c1 01 00 00       	call   8049112 <explode_bomb>
 8048f51:	83 ec 08             	sub    $0x8,%esp
 8048f54:	53                   	push   %ebx
 8048f55:	68 88 c0 04 08       	push   $0x804c088
 8048f5a:	e8 77 ff ff ff       	call   8048ed6 <fun7>
 8048f5f:	83 c4 10             	add    $0x10,%esp
 8048f62:	83 f8 01             	cmp    $0x1,%eax
 8048f65:	74 05                	je     8048f6c <secret_phase+0x45>
 8048f67:	e8 a6 01 00 00       	call   8049112 <explode_bomb>
 8048f6c:	83 ec 0c             	sub    $0xc,%esp
 8048f6f:	68 2c a0 04 08       	push   $0x804a02c
 8048f74:	e8 47 f8 ff ff       	call   80487c0 <puts@plt>
 8048f79:	e8 ed 02 00 00       	call   804926b <phase_defused>
 8048f7e:	83 c4 18             	add    $0x18,%esp
 8048f81:	5b                   	pop    %ebx
 8048f82:	c3                   	ret    

08048f83 <sig_handler>:
 8048f83:	83 ec 18             	sub    $0x18,%esp
 8048f86:	68 8c a0 04 08       	push   $0x804a08c
 8048f8b:	e8 30 f8 ff ff       	call   80487c0 <puts@plt>
 8048f90:	c7 04 24 03 00 00 00 	movl   $0x3,(%esp)
 8048f97:	e8 d4 f7 ff ff       	call   8048770 <sleep@plt>
 8048f9c:	83 c4 08             	add    $0x8,%esp
 8048f9f:	68 4e a1 04 08       	push   $0x804a14e
 8048fa4:	6a 01                	push   $0x1
 8048fa6:	e8 95 f8 ff ff       	call   8048840 <__printf_chk@plt>
 8048fab:	83 c4 04             	add    $0x4,%esp
 8048fae:	ff 35 c4 c3 04 08    	pushl  0x804c3c4
 8048fb4:	e8 87 f7 ff ff       	call   8048740 <fflush@plt>
 8048fb9:	c7 04 24 01 00 00 00 	movl   $0x1,(%esp)
 8048fc0:	e8 ab f7 ff ff       	call   8048770 <sleep@plt>
 8048fc5:	c7 04 24 56 a1 04 08 	movl   $0x804a156,(%esp)
 8048fcc:	e8 ef f7 ff ff       	call   80487c0 <puts@plt>
 8048fd1:	c7 04 24 10 00 00 00 	movl   $0x10,(%esp)
 8048fd8:	e8 03 f8 ff ff       	call   80487e0 <exit@plt>

08048fdd <invalid_phase>:
 8048fdd:	83 ec 10             	sub    $0x10,%esp
 8048fe0:	ff 74 24 14          	pushl  0x14(%esp)
 8048fe4:	68 5e a1 04 08       	push   $0x804a15e
 8048fe9:	6a 01                	push   $0x1
 8048feb:	e8 50 f8 ff ff       	call   8048840 <__printf_chk@plt>
 8048ff0:	c7 04 24 08 00 00 00 	movl   $0x8,(%esp)
 8048ff7:	e8 e4 f7 ff ff       	call   80487e0 <exit@plt>

08048ffc <string_length>:
 8048ffc:	8b 54 24 04          	mov    0x4(%esp),%edx
 8049000:	80 3a 00             	cmpb   $0x0,(%edx)
 8049003:	74 10                	je     8049015 <string_length+0x19>
 8049005:	b8 00 00 00 00       	mov    $0x0,%eax
 804900a:	83 c0 01             	add    $0x1,%eax
 804900d:	80 3c 02 00          	cmpb   $0x0,(%edx,%eax,1)
 8049011:	75 f7                	jne    804900a <string_length+0xe>
 8049013:	f3 c3                	repz ret 
 8049015:	b8 00 00 00 00       	mov    $0x0,%eax
 804901a:	c3                   	ret    

0804901b <strings_not_equal>:
 804901b:	57                   	push   %edi
 804901c:	56                   	push   %esi
 804901d:	53                   	push   %ebx
 804901e:	8b 5c 24 10          	mov    0x10(%esp),%ebx
 8049022:	8b 74 24 14          	mov    0x14(%esp),%esi
 8049026:	53                   	push   %ebx
 8049027:	e8 d0 ff ff ff       	call   8048ffc <string_length>
 804902c:	89 c7                	mov    %eax,%edi
 804902e:	89 34 24             	mov    %esi,(%esp)
 8049031:	e8 c6 ff ff ff       	call   8048ffc <string_length>
 8049036:	83 c4 04             	add    $0x4,%esp
 8049039:	ba 01 00 00 00       	mov    $0x1,%edx
 804903e:	39 c7                	cmp    %eax,%edi
 8049040:	75 38                	jne    804907a <strings_not_equal+0x5f>
 8049042:	0f b6 03             	movzbl (%ebx),%eax
 8049045:	84 c0                	test   %al,%al
 8049047:	74 1e                	je     8049067 <strings_not_equal+0x4c>
 8049049:	3a 06                	cmp    (%esi),%al
 804904b:	74 06                	je     8049053 <strings_not_equal+0x38>
 804904d:	eb 1f                	jmp    804906e <strings_not_equal+0x53>
 804904f:	3a 06                	cmp    (%esi),%al
 8049051:	75 22                	jne    8049075 <strings_not_equal+0x5a>
 8049053:	83 c3 01             	add    $0x1,%ebx
 8049056:	83 c6 01             	add    $0x1,%esi
 8049059:	0f b6 03             	movzbl (%ebx),%eax
 804905c:	84 c0                	test   %al,%al
 804905e:	75 ef                	jne    804904f <strings_not_equal+0x34>
 8049060:	ba 00 00 00 00       	mov    $0x0,%edx
 8049065:	eb 13                	jmp    804907a <strings_not_equal+0x5f>
 8049067:	ba 00 00 00 00       	mov    $0x0,%edx
 804906c:	eb 0c                	jmp    804907a <strings_not_equal+0x5f>
 804906e:	ba 01 00 00 00       	mov    $0x1,%edx
 8049073:	eb 05                	jmp    804907a <strings_not_equal+0x5f>
 8049075:	ba 01 00 00 00       	mov    $0x1,%edx
 804907a:	89 d0                	mov    %edx,%eax
 804907c:	5b                   	pop    %ebx
 804907d:	5e                   	pop    %esi
 804907e:	5f                   	pop    %edi
 804907f:	c3                   	ret    

08049080 <initialize_bomb>:
 8049080:	83 ec 14             	sub    $0x14,%esp
 8049083:	68 83 8f 04 08       	push   $0x8048f83
 8049088:	6a 02                	push   $0x2
 804908a:	e8 d1 f6 ff ff       	call   8048760 <signal@plt>
 804908f:	83 c4 1c             	add    $0x1c,%esp
 8049092:	c3                   	ret    

08049093 <initialize_bomb_solve>:
 8049093:	f3 c3                	repz ret 

08049095 <blank_line>:
 8049095:	56                   	push   %esi
 8049096:	53                   	push   %ebx
 8049097:	83 ec 04             	sub    $0x4,%esp
 804909a:	8b 74 24 10          	mov    0x10(%esp),%esi
 804909e:	eb 14                	jmp    80490b4 <blank_line+0x1f>
 80490a0:	e8 0b f8 ff ff       	call   80488b0 <__ctype_b_loc@plt>
 80490a5:	83 c6 01             	add    $0x1,%esi
 80490a8:	0f be db             	movsbl %bl,%ebx
 80490ab:	8b 00                	mov    (%eax),%eax
 80490ad:	f6 44 58 01 20       	testb  $0x20,0x1(%eax,%ebx,2)
 80490b2:	74 0e                	je     80490c2 <blank_line+0x2d>
 80490b4:	0f b6 1e             	movzbl (%esi),%ebx
 80490b7:	84 db                	test   %bl,%bl
 80490b9:	75 e5                	jne    80490a0 <blank_line+0xb>
 80490bb:	b8 01 00 00 00       	mov    $0x1,%eax
 80490c0:	eb 05                	jmp    80490c7 <blank_line+0x32>
 80490c2:	b8 00 00 00 00       	mov    $0x0,%eax
 80490c7:	83 c4 04             	add    $0x4,%esp
 80490ca:	5b                   	pop    %ebx
 80490cb:	5e                   	pop    %esi
 80490cc:	c3                   	ret    

080490cd <skip>:
 80490cd:	53                   	push   %ebx
 80490ce:	83 ec 08             	sub    $0x8,%esp
 80490d1:	83 ec 04             	sub    $0x4,%esp
 80490d4:	ff 35 d0 c3 04 08    	pushl  0x804c3d0
 80490da:	6a 50                	push   $0x50
 80490dc:	a1 cc c3 04 08       	mov    0x804c3cc,%eax
 80490e1:	8d 04 80             	lea    (%eax,%eax,4),%eax
 80490e4:	c1 e0 04             	shl    $0x4,%eax
 80490e7:	05 e0 c3 04 08       	add    $0x804c3e0,%eax
 80490ec:	50                   	push   %eax
 80490ed:	e8 5e f6 ff ff       	call   8048750 <fgets@plt>
 80490f2:	89 c3                	mov    %eax,%ebx
 80490f4:	83 c4 10             	add    $0x10,%esp
 80490f7:	85 c0                	test   %eax,%eax
 80490f9:	74 10                	je     804910b <skip+0x3e>
 80490fb:	83 ec 0c             	sub    $0xc,%esp
 80490fe:	50                   	push   %eax
 80490ff:	e8 91 ff ff ff       	call   8049095 <blank_line>
 8049104:	83 c4 10             	add    $0x10,%esp
 8049107:	85 c0                	test   %eax,%eax
 8049109:	75 c6                	jne    80490d1 <skip+0x4>
 804910b:	89 d8                	mov    %ebx,%eax
 804910d:	83 c4 08             	add    $0x8,%esp
 8049110:	5b                   	pop    %ebx
 8049111:	c3                   	ret    

08049112 <explode_bomb>:
 8049112:	83 ec 18             	sub    $0x18,%esp
 8049115:	68 6f a1 04 08       	push   $0x804a16f
 804911a:	e8 a1 f6 ff ff       	call   80487c0 <puts@plt>
 804911f:	c7 04 24 78 a1 04 08 	movl   $0x804a178,(%esp)
 8049126:	e8 95 f6 ff ff       	call   80487c0 <puts@plt>
 804912b:	c7 04 24 08 00 00 00 	movl   $0x8,(%esp)
 8049132:	e8 a9 f6 ff ff       	call   80487e0 <exit@plt>

08049137 <read_six_numbers>:
 8049137:	83 ec 0c             	sub    $0xc,%esp
 804913a:	8b 44 24 14          	mov    0x14(%esp),%eax
 804913e:	8d 50 14             	lea    0x14(%eax),%edx
 8049141:	52                   	push   %edx
 8049142:	8d 50 10             	lea    0x10(%eax),%edx
 8049145:	52                   	push   %edx
 8049146:	8d 50 0c             	lea    0xc(%eax),%edx
 8049149:	52                   	push   %edx
 804914a:	8d 50 08             	lea    0x8(%eax),%edx
 804914d:	52                   	push   %edx
 804914e:	8d 50 04             	lea    0x4(%eax),%edx
 8049151:	52                   	push   %edx
 8049152:	50                   	push   %eax
 8049153:	68 8f a1 04 08       	push   $0x804a18f
 8049158:	ff 74 24 2c          	pushl  0x2c(%esp)
 804915c:	e8 af f6 ff ff       	call   8048810 <__isoc99_sscanf@plt>
 8049161:	83 c4 20             	add    $0x20,%esp
 8049164:	83 f8 05             	cmp    $0x5,%eax
 8049167:	7f 05                	jg     804916e <read_six_numbers+0x37>
 8049169:	e8 a4 ff ff ff       	call   8049112 <explode_bomb>
 804916e:	83 c4 0c             	add    $0xc,%esp
 8049171:	c3                   	ret    

08049172 <read_line>:
 8049172:	57                   	push   %edi
 8049173:	56                   	push   %esi
 8049174:	53                   	push   %ebx
 8049175:	e8 53 ff ff ff       	call   80490cd <skip>
 804917a:	85 c0                	test   %eax,%eax
 804917c:	75 70                	jne    80491ee <read_line+0x7c>
 804917e:	a1 c0 c3 04 08       	mov    0x804c3c0,%eax
 8049183:	39 05 d0 c3 04 08    	cmp    %eax,0x804c3d0
 8049189:	75 19                	jne    80491a4 <read_line+0x32>
 804918b:	83 ec 0c             	sub    $0xc,%esp
 804918e:	68 a1 a1 04 08       	push   $0x804a1a1
 8049193:	e8 28 f6 ff ff       	call   80487c0 <puts@plt>
 8049198:	c7 04 24 08 00 00 00 	movl   $0x8,(%esp)
 804919f:	e8 3c f6 ff ff       	call   80487e0 <exit@plt>
 80491a4:	83 ec 0c             	sub    $0xc,%esp
 80491a7:	68 bf a1 04 08       	push   $0x804a1bf
 80491ac:	e8 ff f5 ff ff       	call   80487b0 <getenv@plt>
 80491b1:	83 c4 10             	add    $0x10,%esp
 80491b4:	85 c0                	test   %eax,%eax
 80491b6:	74 0a                	je     80491c2 <read_line+0x50>
 80491b8:	83 ec 0c             	sub    $0xc,%esp
 80491bb:	6a 00                	push   $0x0
 80491bd:	e8 1e f6 ff ff       	call   80487e0 <exit@plt>
 80491c2:	a1 c0 c3 04 08       	mov    0x804c3c0,%eax
 80491c7:	a3 d0 c3 04 08       	mov    %eax,0x804c3d0
 80491cc:	e8 fc fe ff ff       	call   80490cd <skip>
 80491d1:	85 c0                	test   %eax,%eax
 80491d3:	75 19                	jne    80491ee <read_line+0x7c>
 80491d5:	83 ec 0c             	sub    $0xc,%esp
 80491d8:	68 a1 a1 04 08       	push   $0x804a1a1
 80491dd:	e8 de f5 ff ff       	call   80487c0 <puts@plt>
 80491e2:	c7 04 24 00 00 00 00 	movl   $0x0,(%esp)
 80491e9:	e8 f2 f5 ff ff       	call   80487e0 <exit@plt>
 80491ee:	8b 15 cc c3 04 08    	mov    0x804c3cc,%edx
 80491f4:	8d 1c 92             	lea    (%edx,%edx,4),%ebx
 80491f7:	c1 e3 04             	shl    $0x4,%ebx
 80491fa:	81 c3 e0 c3 04 08    	add    $0x804c3e0,%ebx
 8049200:	b8 00 00 00 00       	mov    $0x0,%eax
 8049205:	b9 ff ff ff ff       	mov    $0xffffffff,%ecx
 804920a:	89 df                	mov    %ebx,%edi
 804920c:	f2 ae                	repnz scas %es:(%edi),%al
 804920e:	f7 d1                	not    %ecx
 8049210:	83 e9 01             	sub    $0x1,%ecx
 8049213:	83 f9 4e             	cmp    $0x4e,%ecx
 8049216:	7e 36                	jle    804924e <read_line+0xdc>
 8049218:	83 ec 0c             	sub    $0xc,%esp
 804921b:	68 ca a1 04 08       	push   $0x804a1ca
 8049220:	e8 9b f5 ff ff       	call   80487c0 <puts@plt>
 8049225:	a1 cc c3 04 08       	mov    0x804c3cc,%eax
 804922a:	8d 50 01             	lea    0x1(%eax),%edx
 804922d:	89 15 cc c3 04 08    	mov    %edx,0x804c3cc
 8049233:	6b c0 50             	imul   $0x50,%eax,%eax
 8049236:	05 e0 c3 04 08       	add    $0x804c3e0,%eax
 804923b:	be e5 a1 04 08       	mov    $0x804a1e5,%esi
 8049240:	b9 04 00 00 00       	mov    $0x4,%ecx
 8049245:	89 c7                	mov    %eax,%edi
 8049247:	f3 a5                	rep movsl %ds:(%esi),%es:(%edi)
 8049249:	e8 c4 fe ff ff       	call   8049112 <explode_bomb>
 804924e:	8d 04 92             	lea    (%edx,%edx,4),%eax
 8049251:	c1 e0 04             	shl    $0x4,%eax
 8049254:	c6 84 01 df c3 04 08 	movb   $0x0,0x804c3df(%ecx,%eax,1)
 804925b:	00 
 804925c:	83 c2 01             	add    $0x1,%edx
 804925f:	89 15 cc c3 04 08    	mov    %edx,0x804c3cc
 8049265:	89 d8                	mov    %ebx,%eax
 8049267:	5b                   	pop    %ebx
 8049268:	5e                   	pop    %esi
 8049269:	5f                   	pop    %edi
 804926a:	c3                   	ret    

0804926b <phase_defused>:
 804926b:	83 ec 6c             	sub    $0x6c,%esp
 804926e:	65 a1 14 00 00 00    	mov    %gs:0x14,%eax
 8049274:	89 44 24 5c          	mov    %eax,0x5c(%esp)
 8049278:	31 c0                	xor    %eax,%eax
 804927a:	83 3d cc c3 04 08 06 	cmpl   $0x6,0x804c3cc
 8049281:	75 73                	jne    80492f6 <phase_defused+0x8b>
 8049283:	83 ec 0c             	sub    $0xc,%esp
 8049286:	8d 44 24 18          	lea    0x18(%esp),%eax
 804928a:	50                   	push   %eax
 804928b:	8d 44 24 18          	lea    0x18(%esp),%eax
 804928f:	50                   	push   %eax
 8049290:	8d 44 24 18          	lea    0x18(%esp),%eax
 8049294:	50                   	push   %eax
 8049295:	68 f5 a1 04 08       	push   $0x804a1f5
 804929a:	68 d0 c4 04 08       	push   $0x804c4d0
 804929f:	e8 6c f5 ff ff       	call   8048810 <__isoc99_sscanf@plt>
 80492a4:	83 c4 20             	add    $0x20,%esp
 80492a7:	83 f8 03             	cmp    $0x3,%eax
 80492aa:	75 3a                	jne    80492e6 <phase_defused+0x7b>
 80492ac:	83 ec 08             	sub    $0x8,%esp
 80492af:	68 fe a1 04 08       	push   $0x804a1fe
 80492b4:	8d 44 24 18          	lea    0x18(%esp),%eax
 80492b8:	50                   	push   %eax
 80492b9:	e8 5d fd ff ff       	call   804901b <strings_not_equal>
 80492be:	83 c4 10             	add    $0x10,%esp
 80492c1:	85 c0                	test   %eax,%eax
 80492c3:	75 21                	jne    80492e6 <phase_defused+0x7b>
 80492c5:	83 ec 0c             	sub    $0xc,%esp
 80492c8:	68 c4 a0 04 08       	push   $0x804a0c4
 80492cd:	e8 ee f4 ff ff       	call   80487c0 <puts@plt>
 80492d2:	c7 04 24 ec a0 04 08 	movl   $0x804a0ec,(%esp)
 80492d9:	e8 e2 f4 ff ff       	call   80487c0 <puts@plt>
 80492de:	e8 44 fc ff ff       	call   8048f27 <secret_phase>
 80492e3:	83 c4 10             	add    $0x10,%esp
 80492e6:	83 ec 0c             	sub    $0xc,%esp
 80492e9:	68 24 a1 04 08       	push   $0x804a124
 80492ee:	e8 cd f4 ff ff       	call   80487c0 <puts@plt>
 80492f3:	83 c4 10             	add    $0x10,%esp
 80492f6:	8b 44 24 5c          	mov    0x5c(%esp),%eax
 80492fa:	65 33 05 14 00 00 00 	xor    %gs:0x14,%eax
 8049301:	74 05                	je     8049308 <phase_defused+0x9d>
 8049303:	e8 88 f4 ff ff       	call   8048790 <__stack_chk_fail@plt>
 8049308:	83 c4 6c             	add    $0x6c,%esp
 804930b:	c3                   	ret    

0804930c <sigalrm_handler>:
 804930c:	83 ec 0c             	sub    $0xc,%esp
 804930f:	6a 00                	push   $0x0
 8049311:	68 54 a2 04 08       	push   $0x804a254
 8049316:	6a 01                	push   $0x1
 8049318:	ff 35 a0 c3 04 08    	pushl  0x804c3a0
 804931e:	e8 3d f5 ff ff       	call   8048860 <__fprintf_chk@plt>
 8049323:	c7 04 24 01 00 00 00 	movl   $0x1,(%esp)
 804932a:	e8 b1 f4 ff ff       	call   80487e0 <exit@plt>

0804932f <rio_readlineb>:
 804932f:	55                   	push   %ebp
 8049330:	57                   	push   %edi
 8049331:	56                   	push   %esi
 8049332:	53                   	push   %ebx
 8049333:	83 ec 2c             	sub    $0x2c,%esp
 8049336:	89 d7                	mov    %edx,%edi
 8049338:	89 4c 24 0c          	mov    %ecx,0xc(%esp)
 804933c:	65 8b 15 14 00 00 00 	mov    %gs:0x14,%edx
 8049343:	89 54 24 1c          	mov    %edx,0x1c(%esp)
 8049347:	31 d2                	xor    %edx,%edx
 8049349:	83 f9 01             	cmp    $0x1,%ecx
 804934c:	76 79                	jbe    80493c7 <rio_readlineb+0x98>
 804934e:	89 c3                	mov    %eax,%ebx
 8049350:	89 4c 24 08          	mov    %ecx,0x8(%esp)
 8049354:	bd 01 00 00 00       	mov    $0x1,%ebp
 8049359:	8d 73 0c             	lea    0xc(%ebx),%esi
 804935c:	eb 2d                	jmp    804938b <rio_readlineb+0x5c>
 804935e:	83 ec 04             	sub    $0x4,%esp
 8049361:	68 00 20 00 00       	push   $0x2000
 8049366:	56                   	push   %esi
 8049367:	ff 33                	pushl  (%ebx)
 8049369:	e8 c2 f3 ff ff       	call   8048730 <read@plt>
 804936e:	89 43 04             	mov    %eax,0x4(%ebx)
 8049371:	83 c4 10             	add    $0x10,%esp
 8049374:	85 c0                	test   %eax,%eax
 8049376:	79 0c                	jns    8049384 <rio_readlineb+0x55>
 8049378:	e8 b3 f4 ff ff       	call   8048830 <__errno_location@plt>
 804937d:	83 38 04             	cmpl   $0x4,(%eax)
 8049380:	74 09                	je     804938b <rio_readlineb+0x5c>
 8049382:	eb 62                	jmp    80493e6 <rio_readlineb+0xb7>
 8049384:	85 c0                	test   %eax,%eax
 8049386:	74 63                	je     80493eb <rio_readlineb+0xbc>
 8049388:	89 73 08             	mov    %esi,0x8(%ebx)
 804938b:	8b 43 04             	mov    0x4(%ebx),%eax
 804938e:	85 c0                	test   %eax,%eax
 8049390:	7e cc                	jle    804935e <rio_readlineb+0x2f>
 8049392:	8b 4b 08             	mov    0x8(%ebx),%ecx
 8049395:	0f b6 11             	movzbl (%ecx),%edx
 8049398:	88 54 24 1b          	mov    %dl,0x1b(%esp)
 804939c:	83 c1 01             	add    $0x1,%ecx
 804939f:	89 4b 08             	mov    %ecx,0x8(%ebx)
 80493a2:	83 e8 01             	sub    $0x1,%eax
 80493a5:	89 43 04             	mov    %eax,0x4(%ebx)
 80493a8:	83 c7 01             	add    $0x1,%edi
 80493ab:	88 57 ff             	mov    %dl,-0x1(%edi)
 80493ae:	80 fa 0a             	cmp    $0xa,%dl
 80493b1:	75 09                	jne    80493bc <rio_readlineb+0x8d>
 80493b3:	eb 1d                	jmp    80493d2 <rio_readlineb+0xa3>
 80493b5:	83 fd 01             	cmp    $0x1,%ebp
 80493b8:	75 18                	jne    80493d2 <rio_readlineb+0xa3>
 80493ba:	eb 1b                	jmp    80493d7 <rio_readlineb+0xa8>
 80493bc:	83 c5 01             	add    $0x1,%ebp
 80493bf:	3b 6c 24 08          	cmp    0x8(%esp),%ebp
 80493c3:	74 09                	je     80493ce <rio_readlineb+0x9f>
 80493c5:	eb c4                	jmp    804938b <rio_readlineb+0x5c>
 80493c7:	bd 01 00 00 00       	mov    $0x1,%ebp
 80493cc:	eb 04                	jmp    80493d2 <rio_readlineb+0xa3>
 80493ce:	8b 6c 24 0c          	mov    0xc(%esp),%ebp
 80493d2:	c6 07 00             	movb   $0x0,(%edi)
 80493d5:	89 e8                	mov    %ebp,%eax
 80493d7:	8b 54 24 1c          	mov    0x1c(%esp),%edx
 80493db:	65 33 15 14 00 00 00 	xor    %gs:0x14,%edx
 80493e2:	74 17                	je     80493fb <rio_readlineb+0xcc>
 80493e4:	eb 10                	jmp    80493f6 <rio_readlineb+0xc7>
 80493e6:	b8 ff ff ff ff       	mov    $0xffffffff,%eax
 80493eb:	85 c0                	test   %eax,%eax
 80493ed:	74 c6                	je     80493b5 <rio_readlineb+0x86>
 80493ef:	b8 ff ff ff ff       	mov    $0xffffffff,%eax
 80493f4:	eb e1                	jmp    80493d7 <rio_readlineb+0xa8>
 80493f6:	e8 95 f3 ff ff       	call   8048790 <__stack_chk_fail@plt>
 80493fb:	83 c4 2c             	add    $0x2c,%esp
 80493fe:	5b                   	pop    %ebx
 80493ff:	5e                   	pop    %esi
 8049400:	5f                   	pop    %edi
 8049401:	5d                   	pop    %ebp
 8049402:	c3                   	ret    

08049403 <submitr>:
 8049403:	55                   	push   %ebp
 8049404:	57                   	push   %edi
 8049405:	56                   	push   %esi
 8049406:	53                   	push   %ebx
 8049407:	81 ec 60 a0 00 00    	sub    $0xa060,%esp
 804940d:	8b b4 24 74 a0 00 00 	mov    0xa074(%esp),%esi
 8049414:	8b 84 24 7c a0 00 00 	mov    0xa07c(%esp),%eax
 804941b:	89 44 24 10          	mov    %eax,0x10(%esp)
 804941f:	8b 84 24 80 a0 00 00 	mov    0xa080(%esp),%eax
 8049426:	89 44 24 14          	mov    %eax,0x14(%esp)
 804942a:	8b 84 24 84 a0 00 00 	mov    0xa084(%esp),%eax
 8049431:	89 44 24 18          	mov    %eax,0x18(%esp)
 8049435:	8b 9c 24 88 a0 00 00 	mov    0xa088(%esp),%ebx
 804943c:	8b 84 24 8c a0 00 00 	mov    0xa08c(%esp),%eax
 8049443:	89 44 24 1c          	mov    %eax,0x1c(%esp)
 8049447:	65 a1 14 00 00 00    	mov    %gs:0x14,%eax
 804944d:	89 84 24 50 a0 00 00 	mov    %eax,0xa050(%esp)
 8049454:	31 c0                	xor    %eax,%eax
 8049456:	c7 44 24 30 00 00 00 	movl   $0x0,0x30(%esp)
 804945d:	00 
 804945e:	6a 00                	push   $0x0
 8049460:	6a 01                	push   $0x1
 8049462:	6a 02                	push   $0x2
 8049464:	e8 e7 f3 ff ff       	call   8048850 <socket@plt>
 8049469:	89 44 24 18          	mov    %eax,0x18(%esp)
 804946d:	83 c4 10             	add    $0x10,%esp
 8049470:	85 c0                	test   %eax,%eax
 8049472:	79 52                	jns    80494c6 <submitr+0xc3>
 8049474:	8b 44 24 18          	mov    0x18(%esp),%eax
 8049478:	c7 00 45 72 72 6f    	movl   $0x6f727245,(%eax)
 804947e:	c7 40 04 72 3a 20 43 	movl   $0x43203a72,0x4(%eax)
 8049485:	c7 40 08 6c 69 65 6e 	movl   $0x6e65696c,0x8(%eax)
 804948c:	c7 40 0c 74 20 75 6e 	movl   $0x6e752074,0xc(%eax)
 8049493:	c7 40 10 61 62 6c 65 	movl   $0x656c6261,0x10(%eax)
 804949a:	c7 40 14 20 74 6f 20 	movl   $0x206f7420,0x14(%eax)
 80494a1:	c7 40 18 63 72 65 61 	movl   $0x61657263,0x18(%eax)
 80494a8:	c7 40 1c 74 65 20 73 	movl   $0x73206574,0x1c(%eax)
 80494af:	c7 40 20 6f 63 6b 65 	movl   $0x656b636f,0x20(%eax)
 80494b6:	66 c7 40 24 74 00    	movw   $0x74,0x24(%eax)
 80494bc:	b8 ff ff ff ff       	mov    $0xffffffff,%eax
 80494c1:	e9 3f 06 00 00       	jmp    8049b05 <submitr+0x702>
 80494c6:	83 ec 0c             	sub    $0xc,%esp
 80494c9:	56                   	push   %esi
 80494ca:	e8 a1 f3 ff ff       	call   8048870 <gethostbyname@plt>
 80494cf:	83 c4 10             	add    $0x10,%esp
 80494d2:	85 c0                	test   %eax,%eax
 80494d4:	75 73                	jne    8049549 <submitr+0x146>
 80494d6:	8b 44 24 18          	mov    0x18(%esp),%eax
 80494da:	c7 00 45 72 72 6f    	movl   $0x6f727245,(%eax)
 80494e0:	c7 40 04 72 3a 20 44 	movl   $0x44203a72,0x4(%eax)
 80494e7:	c7 40 08 4e 53 20 69 	movl   $0x6920534e,0x8(%eax)
 80494ee:	c7 40 0c 73 20 75 6e 	movl   $0x6e752073,0xc(%eax)
 80494f5:	c7 40 10 61 62 6c 65 	movl   $0x656c6261,0x10(%eax)
 80494fc:	c7 40 14 20 74 6f 20 	movl   $0x206f7420,0x14(%eax)
 8049503:	c7 40 18 72 65 73 6f 	movl   $0x6f736572,0x18(%eax)
 804950a:	c7 40 1c 6c 76 65 20 	movl   $0x2065766c,0x1c(%eax)
 8049511:	c7 40 20 73 65 72 76 	movl   $0x76726573,0x20(%eax)
 8049518:	c7 40 24 65 72 20 61 	movl   $0x61207265,0x24(%eax)
 804951f:	c7 40 28 64 64 72 65 	movl   $0x65726464,0x28(%eax)
 8049526:	66 c7 40 2c 73 73    	movw   $0x7373,0x2c(%eax)
 804952c:	c6 40 2e 00          	movb   $0x0,0x2e(%eax)
 8049530:	83 ec 0c             	sub    $0xc,%esp
 8049533:	ff 74 24 14          	pushl  0x14(%esp)
 8049537:	e8 64 f3 ff ff       	call   80488a0 <close@plt>
 804953c:	83 c4 10             	add    $0x10,%esp
 804953f:	b8 ff ff ff ff       	mov    $0xffffffff,%eax
 8049544:	e9 bc 05 00 00       	jmp    8049b05 <submitr+0x702>
 8049549:	8d 74 24 30          	lea    0x30(%esp),%esi
 804954d:	c7 44 24 30 00 00 00 	movl   $0x0,0x30(%esp)
 8049554:	00 
 8049555:	c7 44 24 34 00 00 00 	movl   $0x0,0x34(%esp)
 804955c:	00 
 804955d:	c7 44 24 38 00 00 00 	movl   $0x0,0x38(%esp)
 8049564:	00 
 8049565:	c7 44 24 3c 00 00 00 	movl   $0x0,0x3c(%esp)
 804956c:	00 
 804956d:	66 c7 44 24 30 02 00 	movw   $0x2,0x30(%esp)
 8049574:	6a 0c                	push   $0xc
 8049576:	ff 70 0c             	pushl  0xc(%eax)
 8049579:	8b 40 10             	mov    0x10(%eax),%eax
 804957c:	ff 30                	pushl  (%eax)
 804957e:	8d 44 24 40          	lea    0x40(%esp),%eax
 8049582:	50                   	push   %eax
 8049583:	e8 48 f2 ff ff       	call   80487d0 <__memmove_chk@plt>
 8049588:	0f b7 84 24 84 a0 00 	movzwl 0xa084(%esp),%eax
 804958f:	00 
 8049590:	66 c1 c8 08          	ror    $0x8,%ax
 8049594:	66 89 44 24 42       	mov    %ax,0x42(%esp)
 8049599:	83 c4 0c             	add    $0xc,%esp
 804959c:	6a 10                	push   $0x10
 804959e:	56                   	push   %esi
 804959f:	ff 74 24 14          	pushl  0x14(%esp)
 80495a3:	e8 e8 f2 ff ff       	call   8048890 <connect@plt>
 80495a8:	83 c4 10             	add    $0x10,%esp
 80495ab:	85 c0                	test   %eax,%eax
 80495ad:	79 65                	jns    8049614 <submitr+0x211>
 80495af:	8b 44 24 18          	mov    0x18(%esp),%eax
 80495b3:	c7 00 45 72 72 6f    	movl   $0x6f727245,(%eax)
 80495b9:	c7 40 04 72 3a 20 55 	movl   $0x55203a72,0x4(%eax)
 80495c0:	c7 40 08 6e 61 62 6c 	movl   $0x6c62616e,0x8(%eax)
 80495c7:	c7 40 0c 65 20 74 6f 	movl   $0x6f742065,0xc(%eax)
 80495ce:	c7 40 10 20 63 6f 6e 	movl   $0x6e6f6320,0x10(%eax)
 80495d5:	c7 40 14 6e 65 63 74 	movl   $0x7463656e,0x14(%eax)
 80495dc:	c7 40 18 20 74 6f 20 	movl   $0x206f7420,0x18(%eax)
 80495e3:	c7 40 1c 74 68 65 20 	movl   $0x20656874,0x1c(%eax)
 80495ea:	c7 40 20 73 65 72 76 	movl   $0x76726573,0x20(%eax)
 80495f1:	66 c7 40 24 65 72    	movw   $0x7265,0x24(%eax)
 80495f7:	c6 40 26 00          	movb   $0x0,0x26(%eax)
 80495fb:	83 ec 0c             	sub    $0xc,%esp
 80495fe:	ff 74 24 14          	pushl  0x14(%esp)
 8049602:	e8 99 f2 ff ff       	call   80488a0 <close@plt>
 8049607:	83 c4 10             	add    $0x10,%esp
 804960a:	b8 ff ff ff ff       	mov    $0xffffffff,%eax
 804960f:	e9 f1 04 00 00       	jmp    8049b05 <submitr+0x702>
 8049614:	be ff ff ff ff       	mov    $0xffffffff,%esi
 8049619:	b8 00 00 00 00       	mov    $0x0,%eax
 804961e:	89 f1                	mov    %esi,%ecx
 8049620:	89 df                	mov    %ebx,%edi
 8049622:	f2 ae                	repnz scas %es:(%edi),%al
 8049624:	f7 d1                	not    %ecx
 8049626:	89 cd                	mov    %ecx,%ebp
 8049628:	89 f1                	mov    %esi,%ecx
 804962a:	8b 7c 24 0c          	mov    0xc(%esp),%edi
 804962e:	f2 ae                	repnz scas %es:(%edi),%al
 8049630:	89 4c 24 1c          	mov    %ecx,0x1c(%esp)
 8049634:	89 f1                	mov    %esi,%ecx
 8049636:	8b 7c 24 10          	mov    0x10(%esp),%edi
 804963a:	f2 ae                	repnz scas %es:(%edi),%al
 804963c:	89 ca                	mov    %ecx,%edx
 804963e:	f7 d2                	not    %edx
 8049640:	89 f1                	mov    %esi,%ecx
 8049642:	8b 7c 24 14          	mov    0x14(%esp),%edi
 8049646:	f2 ae                	repnz scas %es:(%edi),%al
 8049648:	2b 54 24 1c          	sub    0x1c(%esp),%edx
 804964c:	29 ca                	sub    %ecx,%edx
 804964e:	8d 44 6d fd          	lea    -0x3(%ebp,%ebp,2),%eax
 8049652:	8d 44 02 7b          	lea    0x7b(%edx,%eax,1),%eax
 8049656:	3d 00 20 00 00       	cmp    $0x2000,%eax
 804965b:	76 7e                	jbe    80496db <submitr+0x2d8>
 804965d:	8b 44 24 18          	mov    0x18(%esp),%eax
 8049661:	c7 00 45 72 72 6f    	movl   $0x6f727245,(%eax)
 8049667:	c7 40 04 72 3a 20 52 	movl   $0x52203a72,0x4(%eax)
 804966e:	c7 40 08 65 73 75 6c 	movl   $0x6c757365,0x8(%eax)
 8049675:	c7 40 0c 74 20 73 74 	movl   $0x74732074,0xc(%eax)
 804967c:	c7 40 10 72 69 6e 67 	movl   $0x676e6972,0x10(%eax)
 8049683:	c7 40 14 20 74 6f 6f 	movl   $0x6f6f7420,0x14(%eax)
 804968a:	c7 40 18 20 6c 61 72 	movl   $0x72616c20,0x18(%eax)
 8049691:	c7 40 1c 67 65 2e 20 	movl   $0x202e6567,0x1c(%eax)
 8049698:	c7 40 20 49 6e 63 72 	movl   $0x72636e49,0x20(%eax)
 804969f:	c7 40 24 65 61 73 65 	movl   $0x65736165,0x24(%eax)
 80496a6:	c7 40 28 20 53 55 42 	movl   $0x42555320,0x28(%eax)
 80496ad:	c7 40 2c 4d 49 54 52 	movl   $0x5254494d,0x2c(%eax)
 80496b4:	c7 40 30 5f 4d 41 58 	movl   $0x58414d5f,0x30(%eax)
 80496bb:	c7 40 34 42 55 46 00 	movl   $0x465542,0x34(%eax)
 80496c2:	83 ec 0c             	sub    $0xc,%esp
 80496c5:	ff 74 24 14          	pushl  0x14(%esp)
 80496c9:	e8 d2 f1 ff ff       	call   80488a0 <close@plt>
 80496ce:	83 c4 10             	add    $0x10,%esp
 80496d1:	b8 ff ff ff ff       	mov    $0xffffffff,%eax
 80496d6:	e9 2a 04 00 00       	jmp    8049b05 <submitr+0x702>
 80496db:	8d 94 24 4c 40 00 00 	lea    0x404c(%esp),%edx
 80496e2:	b9 00 08 00 00       	mov    $0x800,%ecx
 80496e7:	b8 00 00 00 00       	mov    $0x0,%eax
 80496ec:	89 d7                	mov    %edx,%edi
 80496ee:	f3 ab                	rep stos %eax,%es:(%edi)
 80496f0:	b9 ff ff ff ff       	mov    $0xffffffff,%ecx
 80496f5:	89 df                	mov    %ebx,%edi
 80496f7:	f2 ae                	repnz scas %es:(%edi),%al
 80496f9:	f7 d1                	not    %ecx
 80496fb:	89 ce                	mov    %ecx,%esi
 80496fd:	83 ee 01             	sub    $0x1,%esi
 8049700:	0f 84 5c 04 00 00    	je     8049b62 <submitr+0x75f>
 8049706:	89 d5                	mov    %edx,%ebp
 8049708:	bf d9 ff 00 00       	mov    $0xffd9,%edi
 804970d:	0f b6 13             	movzbl (%ebx),%edx
 8049710:	8d 4a d6             	lea    -0x2a(%edx),%ecx
 8049713:	b8 01 00 00 00       	mov    $0x1,%eax
 8049718:	80 f9 0f             	cmp    $0xf,%cl
 804971b:	77 0a                	ja     8049727 <submitr+0x324>
 804971d:	89 f8                	mov    %edi,%eax
 804971f:	d3 e8                	shr    %cl,%eax
 8049721:	83 f0 01             	xor    $0x1,%eax
 8049724:	83 e0 01             	and    $0x1,%eax
 8049727:	80 fa 5f             	cmp    $0x5f,%dl
 804972a:	0f 94 c1             	sete   %cl
 804972d:	38 c1                	cmp    %al,%cl
 804972f:	73 0c                	jae    804973d <submitr+0x33a>
 8049731:	89 d0                	mov    %edx,%eax
 8049733:	83 e0 df             	and    $0xffffffdf,%eax
 8049736:	83 e8 41             	sub    $0x41,%eax
 8049739:	3c 19                	cmp    $0x19,%al
 804973b:	77 08                	ja     8049745 <submitr+0x342>
 804973d:	88 55 00             	mov    %dl,0x0(%ebp)
 8049740:	8d 6d 01             	lea    0x1(%ebp),%ebp
 8049743:	eb 62                	jmp    80497a7 <submitr+0x3a4>
 8049745:	80 fa 20             	cmp    $0x20,%dl
 8049748:	75 09                	jne    8049753 <submitr+0x350>
 804974a:	c6 45 00 2b          	movb   $0x2b,0x0(%ebp)
 804974e:	8d 6d 01             	lea    0x1(%ebp),%ebp
 8049751:	eb 54                	jmp    80497a7 <submitr+0x3a4>
 8049753:	8d 42 e0             	lea    -0x20(%edx),%eax
 8049756:	3c 5f                	cmp    $0x5f,%al
 8049758:	76 09                	jbe    8049763 <submitr+0x360>
 804975a:	80 fa 09             	cmp    $0x9,%dl
 804975d:	0f 85 bb 03 00 00    	jne    8049b1e <submitr+0x71b>
 8049763:	83 ec 0c             	sub    $0xc,%esp
 8049766:	0f b6 d2             	movzbl %dl,%edx
 8049769:	52                   	push   %edx
 804976a:	68 60 a3 04 08       	push   $0x804a360
 804976f:	6a 08                	push   $0x8
 8049771:	6a 01                	push   $0x1
 8049773:	8d 84 24 68 80 00 00 	lea    0x8068(%esp),%eax
 804977a:	50                   	push   %eax
 804977b:	e8 40 f1 ff ff       	call   80488c0 <__sprintf_chk@plt>
 8049780:	0f b6 84 24 6c 80 00 	movzbl 0x806c(%esp),%eax
 8049787:	00 
 8049788:	88 45 00             	mov    %al,0x0(%ebp)
 804978b:	0f b6 84 24 6d 80 00 	movzbl 0x806d(%esp),%eax
 8049792:	00 
 8049793:	88 45 01             	mov    %al,0x1(%ebp)
 8049796:	0f b6 84 24 6e 80 00 	movzbl 0x806e(%esp),%eax
 804979d:	00 
 804979e:	88 45 02             	mov    %al,0x2(%ebp)
 80497a1:	83 c4 20             	add    $0x20,%esp
 80497a4:	8d 6d 03             	lea    0x3(%ebp),%ebp
 80497a7:	83 c3 01             	add    $0x1,%ebx
 80497aa:	83 ee 01             	sub    $0x1,%esi
 80497ad:	0f 85 5a ff ff ff    	jne    804970d <submitr+0x30a>
 80497b3:	e9 aa 03 00 00       	jmp    8049b62 <submitr+0x75f>
 80497b8:	83 ec 04             	sub    $0x4,%esp
 80497bb:	53                   	push   %ebx
 80497bc:	56                   	push   %esi
 80497bd:	55                   	push   %ebp
 80497be:	e8 3d f0 ff ff       	call   8048800 <write@plt>
 80497c3:	83 c4 10             	add    $0x10,%esp
 80497c6:	85 c0                	test   %eax,%eax
 80497c8:	7f 0f                	jg     80497d9 <submitr+0x3d6>
 80497ca:	e8 61 f0 ff ff       	call   8048830 <__errno_location@plt>
 80497cf:	83 38 04             	cmpl   $0x4,(%eax)
 80497d2:	75 0f                	jne    80497e3 <submitr+0x3e0>
 80497d4:	b8 00 00 00 00       	mov    $0x0,%eax
 80497d9:	01 c6                	add    %eax,%esi
 80497db:	29 c3                	sub    %eax,%ebx
 80497dd:	75 d9                	jne    80497b8 <submitr+0x3b5>
 80497df:	85 ff                	test   %edi,%edi
 80497e1:	79 69                	jns    804984c <submitr+0x449>
 80497e3:	8b 44 24 18          	mov    0x18(%esp),%eax
 80497e7:	c7 00 45 72 72 6f    	movl   $0x6f727245,(%eax)
 80497ed:	c7 40 04 72 3a 20 43 	movl   $0x43203a72,0x4(%eax)
 80497f4:	c7 40 08 6c 69 65 6e 	movl   $0x6e65696c,0x8(%eax)
 80497fb:	c7 40 0c 74 20 75 6e 	movl   $0x6e752074,0xc(%eax)
 8049802:	c7 40 10 61 62 6c 65 	movl   $0x656c6261,0x10(%eax)
 8049809:	c7 40 14 20 74 6f 20 	movl   $0x206f7420,0x14(%eax)
 8049810:	c7 40 18 77 72 69 74 	movl   $0x74697277,0x18(%eax)
 8049817:	c7 40 1c 65 20 74 6f 	movl   $0x6f742065,0x1c(%eax)
 804981e:	c7 40 20 20 74 68 65 	movl   $0x65687420,0x20(%eax)
 8049825:	c7 40 24 20 73 65 72 	movl   $0x72657320,0x24(%eax)
 804982c:	c7 40 28 76 65 72 00 	movl   $0x726576,0x28(%eax)
 8049833:	83 ec 0c             	sub    $0xc,%esp
 8049836:	ff 74 24 14          	pushl  0x14(%esp)
 804983a:	e8 61 f0 ff ff       	call   80488a0 <close@plt>
 804983f:	83 c4 10             	add    $0x10,%esp
 8049842:	b8 ff ff ff ff       	mov    $0xffffffff,%eax
 8049847:	e9 b9 02 00 00       	jmp    8049b05 <submitr+0x702>
 804984c:	8b 44 24 08          	mov    0x8(%esp),%eax
 8049850:	89 44 24 40          	mov    %eax,0x40(%esp)
 8049854:	c7 44 24 44 00 00 00 	movl   $0x0,0x44(%esp)
 804985b:	00 
 804985c:	8d 44 24 4c          	lea    0x4c(%esp),%eax
 8049860:	89 44 24 48          	mov    %eax,0x48(%esp)
 8049864:	b9 00 20 00 00       	mov    $0x2000,%ecx
 8049869:	8d 94 24 4c 20 00 00 	lea    0x204c(%esp),%edx
 8049870:	8d 44 24 40          	lea    0x40(%esp),%eax
 8049874:	e8 b6 fa ff ff       	call   804932f <rio_readlineb>
 8049879:	85 c0                	test   %eax,%eax
 804987b:	7f 7d                	jg     80498fa <submitr+0x4f7>
 804987d:	8b 44 24 18          	mov    0x18(%esp),%eax
 8049881:	c7 00 45 72 72 6f    	movl   $0x6f727245,(%eax)
 8049887:	c7 40 04 72 3a 20 43 	movl   $0x43203a72,0x4(%eax)
 804988e:	c7 40 08 6c 69 65 6e 	movl   $0x6e65696c,0x8(%eax)
 8049895:	c7 40 0c 74 20 75 6e 	movl   $0x6e752074,0xc(%eax)
 804989c:	c7 40 10 61 62 6c 65 	movl   $0x656c6261,0x10(%eax)
 80498a3:	c7 40 14 20 74 6f 20 	movl   $0x206f7420,0x14(%eax)
 80498aa:	c7 40 18 72 65 61 64 	movl   $0x64616572,0x18(%eax)
 80498b1:	c7 40 1c 20 66 69 72 	movl   $0x72696620,0x1c(%eax)
 80498b8:	c7 40 20 73 74 20 68 	movl   $0x68207473,0x20(%eax)
 80498bf:	c7 40 24 65 61 64 65 	movl   $0x65646165,0x24(%eax)
 80498c6:	c7 40 28 72 20 66 72 	movl   $0x72662072,0x28(%eax)
 80498cd:	c7 40 2c 6f 6d 20 73 	movl   $0x73206d6f,0x2c(%eax)
 80498d4:	c7 40 30 65 72 76 65 	movl   $0x65767265,0x30(%eax)
 80498db:	66 c7 40 34 72 00    	movw   $0x72,0x34(%eax)
 80498e1:	83 ec 0c             	sub    $0xc,%esp
 80498e4:	ff 74 24 14          	pushl  0x14(%esp)
 80498e8:	e8 b3 ef ff ff       	call   80488a0 <close@plt>
 80498ed:	83 c4 10             	add    $0x10,%esp
 80498f0:	b8 ff ff ff ff       	mov    $0xffffffff,%eax
 80498f5:	e9 0b 02 00 00       	jmp    8049b05 <submitr+0x702>
 80498fa:	83 ec 0c             	sub    $0xc,%esp
 80498fd:	8d 84 24 58 80 00 00 	lea    0x8058(%esp),%eax
 8049904:	50                   	push   %eax
 8049905:	8d 44 24 3c          	lea    0x3c(%esp),%eax
 8049909:	50                   	push   %eax
 804990a:	8d 84 24 60 60 00 00 	lea    0x6060(%esp),%eax
 8049911:	50                   	push   %eax
 8049912:	68 67 a3 04 08       	push   $0x804a367
 8049917:	8d 84 24 68 20 00 00 	lea    0x2068(%esp),%eax
 804991e:	50                   	push   %eax
 804991f:	e8 ec ee ff ff       	call   8048810 <__isoc99_sscanf@plt>
 8049924:	8b 44 24 4c          	mov    0x4c(%esp),%eax
 8049928:	83 c4 20             	add    $0x20,%esp
 804992b:	3d c8 00 00 00       	cmp    $0xc8,%eax
 8049930:	0f 84 c4 00 00 00    	je     80499fa <submitr+0x5f7>
 8049936:	83 ec 08             	sub    $0x8,%esp
 8049939:	8d 94 24 54 80 00 00 	lea    0x8054(%esp),%edx
 8049940:	52                   	push   %edx
 8049941:	50                   	push   %eax
 8049942:	68 78 a2 04 08       	push   $0x804a278
 8049947:	6a ff                	push   $0xffffffff
 8049949:	6a 01                	push   $0x1
 804994b:	ff 74 24 34          	pushl  0x34(%esp)
 804994f:	e8 6c ef ff ff       	call   80488c0 <__sprintf_chk@plt>
 8049954:	83 c4 14             	add    $0x14,%esp
 8049957:	ff 74 24 14          	pushl  0x14(%esp)
 804995b:	e8 40 ef ff ff       	call   80488a0 <close@plt>
 8049960:	83 c4 10             	add    $0x10,%esp
 8049963:	b8 ff ff ff ff       	mov    $0xffffffff,%eax
 8049968:	e9 98 01 00 00       	jmp    8049b05 <submitr+0x702>
 804996d:	b9 00 20 00 00       	mov    $0x2000,%ecx
 8049972:	8d 94 24 4c 20 00 00 	lea    0x204c(%esp),%edx
 8049979:	8d 44 24 40          	lea    0x40(%esp),%eax
 804997d:	e8 ad f9 ff ff       	call   804932f <rio_readlineb>
 8049982:	85 c0                	test   %eax,%eax
 8049984:	7f 74                	jg     80499fa <submitr+0x5f7>
 8049986:	8b 44 24 18          	mov    0x18(%esp),%eax
 804998a:	c7 00 45 72 72 6f    	movl   $0x6f727245,(%eax)
 8049990:	c7 40 04 72 3a 20 43 	movl   $0x43203a72,0x4(%eax)
 8049997:	c7 40 08 6c 69 65 6e 	movl   $0x6e65696c,0x8(%eax)
 804999e:	c7 40 0c 74 20 75 6e 	movl   $0x6e752074,0xc(%eax)
 80499a5:	c7 40 10 61 62 6c 65 	movl   $0x656c6261,0x10(%eax)
 80499ac:	c7 40 14 20 74 6f 20 	movl   $0x206f7420,0x14(%eax)
 80499b3:	c7 40 18 72 65 61 64 	movl   $0x64616572,0x18(%eax)
 80499ba:	c7 40 1c 20 68 65 61 	movl   $0x61656820,0x1c(%eax)
 80499c1:	c7 40 20 64 65 72 73 	movl   $0x73726564,0x20(%eax)
 80499c8:	c7 40 24 20 66 72 6f 	movl   $0x6f726620,0x24(%eax)
 80499cf:	c7 40 28 6d 20 73 65 	movl   $0x6573206d,0x28(%eax)
 80499d6:	c7 40 2c 72 76 65 72 	movl   $0x72657672,0x2c(%eax)
 80499dd:	c6 40 30 00          	movb   $0x0,0x30(%eax)
 80499e1:	83 ec 0c             	sub    $0xc,%esp
 80499e4:	ff 74 24 14          	pushl  0x14(%esp)
 80499e8:	e8 b3 ee ff ff       	call   80488a0 <close@plt>
 80499ed:	83 c4 10             	add    $0x10,%esp
 80499f0:	b8 ff ff ff ff       	mov    $0xffffffff,%eax
 80499f5:	e9 0b 01 00 00       	jmp    8049b05 <submitr+0x702>
 80499fa:	80 bc 24 4c 20 00 00 	cmpb   $0xd,0x204c(%esp)
 8049a01:	0d 
 8049a02:	0f 85 65 ff ff ff    	jne    804996d <submitr+0x56a>
 8049a08:	80 bc 24 4d 20 00 00 	cmpb   $0xa,0x204d(%esp)
 8049a0f:	0a 
 8049a10:	0f 85 57 ff ff ff    	jne    804996d <submitr+0x56a>
 8049a16:	80 bc 24 4e 20 00 00 	cmpb   $0x0,0x204e(%esp)
 8049a1d:	00 
 8049a1e:	0f 85 49 ff ff ff    	jne    804996d <submitr+0x56a>
 8049a24:	b9 00 20 00 00       	mov    $0x2000,%ecx
 8049a29:	8d 94 24 4c 20 00 00 	lea    0x204c(%esp),%edx
 8049a30:	8d 44 24 40          	lea    0x40(%esp),%eax
 8049a34:	e8 f6 f8 ff ff       	call   804932f <rio_readlineb>
 8049a39:	85 c0                	test   %eax,%eax
 8049a3b:	7f 7b                	jg     8049ab8 <submitr+0x6b5>
 8049a3d:	8b 44 24 18          	mov    0x18(%esp),%eax
 8049a41:	c7 00 45 72 72 6f    	movl   $0x6f727245,(%eax)
 8049a47:	c7 40 04 72 3a 20 43 	movl   $0x43203a72,0x4(%eax)
 8049a4e:	c7 40 08 6c 69 65 6e 	movl   $0x6e65696c,0x8(%eax)
 8049a55:	c7 40 0c 74 20 75 6e 	movl   $0x6e752074,0xc(%eax)
 8049a5c:	c7 40 10 61 62 6c 65 	movl   $0x656c6261,0x10(%eax)
 8049a63:	c7 40 14 20 74 6f 20 	movl   $0x206f7420,0x14(%eax)
 8049a6a:	c7 40 18 72 65 61 64 	movl   $0x64616572,0x18(%eax)
 8049a71:	c7 40 1c 20 73 74 61 	movl   $0x61747320,0x1c(%eax)
 8049a78:	c7 40 20 74 75 73 20 	movl   $0x20737574,0x20(%eax)
 8049a7f:	c7 40 24 6d 65 73 73 	movl   $0x7373656d,0x24(%eax)
 8049a86:	c7 40 28 61 67 65 20 	movl   $0x20656761,0x28(%eax)
 8049a8d:	c7 40 2c 66 72 6f 6d 	movl   $0x6d6f7266,0x2c(%eax)
 8049a94:	c7 40 30 20 73 65 72 	movl   $0x72657320,0x30(%eax)
 8049a9b:	c7 40 34 76 65 72 00 	movl   $0x726576,0x34(%eax)
 8049aa2:	83 ec 0c             	sub    $0xc,%esp
 8049aa5:	ff 74 24 14          	pushl  0x14(%esp)
 8049aa9:	e8 f2 ed ff ff       	call   80488a0 <close@plt>
 8049aae:	83 c4 10             	add    $0x10,%esp
 8049ab1:	b8 ff ff ff ff       	mov    $0xffffffff,%eax
 8049ab6:	eb 4d                	jmp    8049b05 <submitr+0x702>
 8049ab8:	83 ec 08             	sub    $0x8,%esp
 8049abb:	8d 84 24 54 20 00 00 	lea    0x2054(%esp),%eax
 8049ac2:	50                   	push   %eax
 8049ac3:	8b 7c 24 24          	mov    0x24(%esp),%edi
 8049ac7:	57                   	push   %edi
 8049ac8:	e8 d3 ec ff ff       	call   80487a0 <strcpy@plt>
 8049acd:	83 c4 04             	add    $0x4,%esp
 8049ad0:	ff 74 24 14          	pushl  0x14(%esp)
 8049ad4:	e8 c7 ed ff ff       	call   80488a0 <close@plt>
 8049ad9:	0f b6 17             	movzbl (%edi),%edx
 8049adc:	b8 4f 00 00 00       	mov    $0x4f,%eax
 8049ae1:	83 c4 10             	add    $0x10,%esp
 8049ae4:	29 d0                	sub    %edx,%eax
 8049ae6:	75 13                	jne    8049afb <submitr+0x6f8>
 8049ae8:	0f b6 57 01          	movzbl 0x1(%edi),%edx
 8049aec:	b8 4b 00 00 00       	mov    $0x4b,%eax
 8049af1:	29 d0                	sub    %edx,%eax
 8049af3:	75 06                	jne    8049afb <submitr+0x6f8>
 8049af5:	0f b6 47 02          	movzbl 0x2(%edi),%eax
 8049af9:	f7 d8                	neg    %eax
 8049afb:	85 c0                	test   %eax,%eax
 8049afd:	0f 95 c0             	setne  %al
 8049b00:	0f b6 c0             	movzbl %al,%eax
 8049b03:	f7 d8                	neg    %eax
 8049b05:	8b bc 24 4c a0 00 00 	mov    0xa04c(%esp),%edi
 8049b0c:	65 33 3d 14 00 00 00 	xor    %gs:0x14,%edi
 8049b13:	0f 84 a9 00 00 00    	je     8049bc2 <submitr+0x7bf>
 8049b19:	e9 9f 00 00 00       	jmp    8049bbd <submitr+0x7ba>
 8049b1e:	a1 a8 a2 04 08       	mov    0x804a2a8,%eax
 8049b23:	8b 7c 24 18          	mov    0x18(%esp),%edi
 8049b27:	89 07                	mov    %eax,(%edi)
 8049b29:	a1 e7 a2 04 08       	mov    0x804a2e7,%eax
 8049b2e:	89 47 3f             	mov    %eax,0x3f(%edi)
 8049b31:	89 f8                	mov    %edi,%eax
 8049b33:	83 c7 04             	add    $0x4,%edi
 8049b36:	83 e7 fc             	and    $0xfffffffc,%edi
 8049b39:	29 f8                	sub    %edi,%eax
 8049b3b:	be a8 a2 04 08       	mov    $0x804a2a8,%esi
 8049b40:	29 c6                	sub    %eax,%esi
 8049b42:	83 c0 43             	add    $0x43,%eax
 8049b45:	c1 e8 02             	shr    $0x2,%eax
 8049b48:	89 c1                	mov    %eax,%ecx
 8049b4a:	f3 a5                	rep movsl %ds:(%esi),%es:(%edi)
 8049b4c:	83 ec 0c             	sub    $0xc,%esp
 8049b4f:	ff 74 24 14          	pushl  0x14(%esp)
 8049b53:	e8 48 ed ff ff       	call   80488a0 <close@plt>
 8049b58:	83 c4 10             	add    $0x10,%esp
 8049b5b:	b8 ff ff ff ff       	mov    $0xffffffff,%eax
 8049b60:	eb a3                	jmp    8049b05 <submitr+0x702>
 8049b62:	8d 84 24 4c 40 00 00 	lea    0x404c(%esp),%eax
 8049b69:	50                   	push   %eax
 8049b6a:	ff 74 24 18          	pushl  0x18(%esp)
 8049b6e:	ff 74 24 18          	pushl  0x18(%esp)
 8049b72:	ff 74 24 18          	pushl  0x18(%esp)
 8049b76:	68 ec a2 04 08       	push   $0x804a2ec
 8049b7b:	68 00 20 00 00       	push   $0x2000
 8049b80:	6a 01                	push   $0x1
 8049b82:	8d bc 24 68 20 00 00 	lea    0x2068(%esp),%edi
 8049b89:	57                   	push   %edi
 8049b8a:	e8 31 ed ff ff       	call   80488c0 <__sprintf_chk@plt>
 8049b8f:	b8 00 00 00 00       	mov    $0x0,%eax
 8049b94:	b9 ff ff ff ff       	mov    $0xffffffff,%ecx
 8049b99:	f2 ae                	repnz scas %es:(%edi),%al
 8049b9b:	f7 d1                	not    %ecx
 8049b9d:	8d 79 ff             	lea    -0x1(%ecx),%edi
 8049ba0:	83 c4 20             	add    $0x20,%esp
 8049ba3:	89 fb                	mov    %edi,%ebx
 8049ba5:	8d b4 24 4c 20 00 00 	lea    0x204c(%esp),%esi
 8049bac:	8b 6c 24 08          	mov    0x8(%esp),%ebp
 8049bb0:	85 ff                	test   %edi,%edi
 8049bb2:	0f 85 00 fc ff ff    	jne    80497b8 <submitr+0x3b5>
 8049bb8:	e9 8f fc ff ff       	jmp    804984c <submitr+0x449>
 8049bbd:	e8 ce eb ff ff       	call   8048790 <__stack_chk_fail@plt>
 8049bc2:	81 c4 5c a0 00 00    	add    $0xa05c,%esp
 8049bc8:	5b                   	pop    %ebx
 8049bc9:	5e                   	pop    %esi
 8049bca:	5f                   	pop    %edi
 8049bcb:	5d                   	pop    %ebp
 8049bcc:	c3                   	ret    

08049bcd <init_timeout>:
 8049bcd:	53                   	push   %ebx
 8049bce:	83 ec 08             	sub    $0x8,%esp
 8049bd1:	8b 5c 24 10          	mov    0x10(%esp),%ebx
 8049bd5:	85 db                	test   %ebx,%ebx
 8049bd7:	74 24                	je     8049bfd <init_timeout+0x30>
 8049bd9:	83 ec 08             	sub    $0x8,%esp
 8049bdc:	68 0c 93 04 08       	push   $0x804930c
 8049be1:	6a 0e                	push   $0xe
 8049be3:	e8 78 eb ff ff       	call   8048760 <signal@plt>
 8049be8:	85 db                	test   %ebx,%ebx
 8049bea:	b8 00 00 00 00       	mov    $0x0,%eax
 8049bef:	0f 48 d8             	cmovs  %eax,%ebx
 8049bf2:	89 1c 24             	mov    %ebx,(%esp)
 8049bf5:	e8 86 eb ff ff       	call   8048780 <alarm@plt>
 8049bfa:	83 c4 10             	add    $0x10,%esp
 8049bfd:	83 c4 08             	add    $0x8,%esp
 8049c00:	5b                   	pop    %ebx
 8049c01:	c3                   	ret    

08049c02 <init_driver>:
 8049c02:	57                   	push   %edi
 8049c03:	56                   	push   %esi
 8049c04:	53                   	push   %ebx
 8049c05:	83 ec 28             	sub    $0x28,%esp
 8049c08:	8b 74 24 38          	mov    0x38(%esp),%esi
 8049c0c:	65 a1 14 00 00 00    	mov    %gs:0x14,%eax
 8049c12:	89 44 24 24          	mov    %eax,0x24(%esp)
 8049c16:	31 c0                	xor    %eax,%eax
 8049c18:	6a 01                	push   $0x1
 8049c1a:	6a 0d                	push   $0xd
 8049c1c:	e8 3f eb ff ff       	call   8048760 <signal@plt>
 8049c21:	83 c4 08             	add    $0x8,%esp
 8049c24:	6a 01                	push   $0x1
 8049c26:	6a 1d                	push   $0x1d
 8049c28:	e8 33 eb ff ff       	call   8048760 <signal@plt>
 8049c2d:	83 c4 08             	add    $0x8,%esp
 8049c30:	6a 01                	push   $0x1
 8049c32:	6a 1d                	push   $0x1d
 8049c34:	e8 27 eb ff ff       	call   8048760 <signal@plt>
 8049c39:	83 c4 0c             	add    $0xc,%esp
 8049c3c:	6a 00                	push   $0x0
 8049c3e:	6a 01                	push   $0x1
 8049c40:	6a 02                	push   $0x2
 8049c42:	e8 09 ec ff ff       	call   8048850 <socket@plt>
 8049c47:	83 c4 10             	add    $0x10,%esp
 8049c4a:	85 c0                	test   %eax,%eax
 8049c4c:	79 4e                	jns    8049c9c <init_driver+0x9a>
 8049c4e:	c7 06 45 72 72 6f    	movl   $0x6f727245,(%esi)
 8049c54:	c7 46 04 72 3a 20 43 	movl   $0x43203a72,0x4(%esi)
 8049c5b:	c7 46 08 6c 69 65 6e 	movl   $0x6e65696c,0x8(%esi)
 8049c62:	c7 46 0c 74 20 75 6e 	movl   $0x6e752074,0xc(%esi)
 8049c69:	c7 46 10 61 62 6c 65 	movl   $0x656c6261,0x10(%esi)
 8049c70:	c7 46 14 20 74 6f 20 	movl   $0x206f7420,0x14(%esi)
 8049c77:	c7 46 18 63 72 65 61 	movl   $0x61657263,0x18(%esi)
 8049c7e:	c7 46 1c 74 65 20 73 	movl   $0x73206574,0x1c(%esi)
 8049c85:	c7 46 20 6f 63 6b 65 	movl   $0x656b636f,0x20(%esi)
 8049c8c:	66 c7 46 24 74 00    	movw   $0x74,0x24(%esi)
 8049c92:	b8 ff ff ff ff       	mov    $0xffffffff,%eax
 8049c97:	e9 1f 01 00 00       	jmp    8049dbb <init_driver+0x1b9>
 8049c9c:	89 c3                	mov    %eax,%ebx
 8049c9e:	83 ec 0c             	sub    $0xc,%esp
 8049ca1:	68 78 a3 04 08       	push   $0x804a378
 8049ca6:	e8 c5 eb ff ff       	call   8048870 <gethostbyname@plt>
 8049cab:	83 c4 10             	add    $0x10,%esp
 8049cae:	85 c0                	test   %eax,%eax
 8049cb0:	75 6c                	jne    8049d1e <init_driver+0x11c>
 8049cb2:	c7 06 45 72 72 6f    	movl   $0x6f727245,(%esi)
 8049cb8:	c7 46 04 72 3a 20 44 	movl   $0x44203a72,0x4(%esi)
 8049cbf:	c7 46 08 4e 53 20 69 	movl   $0x6920534e,0x8(%esi)
 8049cc6:	c7 46 0c 73 20 75 6e 	movl   $0x6e752073,0xc(%esi)
 8049ccd:	c7 46 10 61 62 6c 65 	movl   $0x656c6261,0x10(%esi)
 8049cd4:	c7 46 14 20 74 6f 20 	movl   $0x206f7420,0x14(%esi)
 8049cdb:	c7 46 18 72 65 73 6f 	movl   $0x6f736572,0x18(%esi)
 8049ce2:	c7 46 1c 6c 76 65 20 	movl   $0x2065766c,0x1c(%esi)
 8049ce9:	c7 46 20 73 65 72 76 	movl   $0x76726573,0x20(%esi)
 8049cf0:	c7 46 24 65 72 20 61 	movl   $0x61207265,0x24(%esi)
 8049cf7:	c7 46 28 64 64 72 65 	movl   $0x65726464,0x28(%esi)
 8049cfe:	66 c7 46 2c 73 73    	movw   $0x7373,0x2c(%esi)
 8049d04:	c6 46 2e 00          	movb   $0x0,0x2e(%esi)
 8049d08:	83 ec 0c             	sub    $0xc,%esp
 8049d0b:	53                   	push   %ebx
 8049d0c:	e8 8f eb ff ff       	call   80488a0 <close@plt>
 8049d11:	83 c4 10             	add    $0x10,%esp
 8049d14:	b8 ff ff ff ff       	mov    $0xffffffff,%eax
 8049d19:	e9 9d 00 00 00       	jmp    8049dbb <init_driver+0x1b9>
 8049d1e:	8d 7c 24 0c          	lea    0xc(%esp),%edi
 8049d22:	c7 44 24 0c 00 00 00 	movl   $0x0,0xc(%esp)
 8049d29:	00 
 8049d2a:	c7 44 24 10 00 00 00 	movl   $0x0,0x10(%esp)
 8049d31:	00 
 8049d32:	c7 44 24 14 00 00 00 	movl   $0x0,0x14(%esp)
 8049d39:	00 
 8049d3a:	c7 44 24 18 00 00 00 	movl   $0x0,0x18(%esp)
 8049d41:	00 
 8049d42:	66 c7 44 24 0c 02 00 	movw   $0x2,0xc(%esp)
 8049d49:	6a 0c                	push   $0xc
 8049d4b:	ff 70 0c             	pushl  0xc(%eax)
 8049d4e:	8b 40 10             	mov    0x10(%eax),%eax
 8049d51:	ff 30                	pushl  (%eax)
 8049d53:	8d 44 24 1c          	lea    0x1c(%esp),%eax
 8049d57:	50                   	push   %eax
 8049d58:	e8 73 ea ff ff       	call   80487d0 <__memmove_chk@plt>
 8049d5d:	66 c7 44 24 1e 3b 6e 	movw   $0x6e3b,0x1e(%esp)
 8049d64:	83 c4 0c             	add    $0xc,%esp
 8049d67:	6a 10                	push   $0x10
 8049d69:	57                   	push   %edi
 8049d6a:	53                   	push   %ebx
 8049d6b:	e8 20 eb ff ff       	call   8048890 <connect@plt>
 8049d70:	83 c4 10             	add    $0x10,%esp
 8049d73:	85 c0                	test   %eax,%eax
 8049d75:	79 2a                	jns    8049da1 <init_driver+0x19f>
 8049d77:	83 ec 0c             	sub    $0xc,%esp
 8049d7a:	68 78 a3 04 08       	push   $0x804a378
 8049d7f:	68 38 a3 04 08       	push   $0x804a338
 8049d84:	6a ff                	push   $0xffffffff
 8049d86:	6a 01                	push   $0x1
 8049d88:	56                   	push   %esi
 8049d89:	e8 32 eb ff ff       	call   80488c0 <__sprintf_chk@plt>
 8049d8e:	83 c4 14             	add    $0x14,%esp
 8049d91:	53                   	push   %ebx
 8049d92:	e8 09 eb ff ff       	call   80488a0 <close@plt>
 8049d97:	83 c4 10             	add    $0x10,%esp
 8049d9a:	b8 ff ff ff ff       	mov    $0xffffffff,%eax
 8049d9f:	eb 1a                	jmp    8049dbb <init_driver+0x1b9>
 8049da1:	83 ec 0c             	sub    $0xc,%esp
 8049da4:	53                   	push   %ebx
 8049da5:	e8 f6 ea ff ff       	call   80488a0 <close@plt>
 8049daa:	66 c7 06 4f 4b       	movw   $0x4b4f,(%esi)
 8049daf:	c6 46 02 00          	movb   $0x0,0x2(%esi)
 8049db3:	83 c4 10             	add    $0x10,%esp
 8049db6:	b8 00 00 00 00       	mov    $0x0,%eax
 8049dbb:	8b 54 24 1c          	mov    0x1c(%esp),%edx
 8049dbf:	65 33 15 14 00 00 00 	xor    %gs:0x14,%edx
 8049dc6:	74 05                	je     8049dcd <init_driver+0x1cb>
 8049dc8:	e8 c3 e9 ff ff       	call   8048790 <__stack_chk_fail@plt>
 8049dcd:	83 c4 20             	add    $0x20,%esp
 8049dd0:	5b                   	pop    %ebx
 8049dd1:	5e                   	pop    %esi
 8049dd2:	5f                   	pop    %edi
 8049dd3:	c3                   	ret    

08049dd4 <driver_post>:
 8049dd4:	53                   	push   %ebx
 8049dd5:	83 ec 08             	sub    $0x8,%esp
 8049dd8:	8b 44 24 10          	mov    0x10(%esp),%eax
 8049ddc:	8b 5c 24 1c          	mov    0x1c(%esp),%ebx
 8049de0:	83 7c 24 18 00       	cmpl   $0x0,0x18(%esp)
 8049de5:	74 26                	je     8049e0d <driver_post+0x39>
 8049de7:	83 ec 04             	sub    $0x4,%esp
 8049dea:	ff 74 24 18          	pushl  0x18(%esp)
 8049dee:	68 86 a3 04 08       	push   $0x804a386
 8049df3:	6a 01                	push   $0x1
 8049df5:	e8 46 ea ff ff       	call   8048840 <__printf_chk@plt>
 8049dfa:	66 c7 03 4f 4b       	movw   $0x4b4f,(%ebx)
 8049dff:	c6 43 02 00          	movb   $0x0,0x2(%ebx)
 8049e03:	83 c4 10             	add    $0x10,%esp
 8049e06:	b8 00 00 00 00       	mov    $0x0,%eax
 8049e0b:	eb 3e                	jmp    8049e4b <driver_post+0x77>
 8049e0d:	85 c0                	test   %eax,%eax
 8049e0f:	74 2c                	je     8049e3d <driver_post+0x69>
 8049e11:	80 38 00             	cmpb   $0x0,(%eax)
 8049e14:	74 27                	je     8049e3d <driver_post+0x69>
 8049e16:	83 ec 04             	sub    $0x4,%esp
 8049e19:	53                   	push   %ebx
 8049e1a:	ff 74 24 1c          	pushl  0x1c(%esp)
 8049e1e:	68 9d a3 04 08       	push   $0x804a39d
 8049e23:	50                   	push   %eax
 8049e24:	68 a5 a3 04 08       	push   $0x804a3a5
 8049e29:	68 6e 3b 00 00       	push   $0x3b6e
 8049e2e:	68 78 a3 04 08       	push   $0x804a378
 8049e33:	e8 cb f5 ff ff       	call   8049403 <submitr>
 8049e38:	83 c4 20             	add    $0x20,%esp
 8049e3b:	eb 0e                	jmp    8049e4b <driver_post+0x77>
 8049e3d:	66 c7 03 4f 4b       	movw   $0x4b4f,(%ebx)
 8049e42:	c6 43 02 00          	movb   $0x0,0x2(%ebx)
 8049e46:	b8 00 00 00 00       	mov    $0x0,%eax
 8049e4b:	83 c4 08             	add    $0x8,%esp
 8049e4e:	5b                   	pop    %ebx
 8049e4f:	c3                   	ret    

08049e50 <__libc_csu_init>:
 8049e50:	55                   	push   %ebp
 8049e51:	57                   	push   %edi
 8049e52:	56                   	push   %esi
 8049e53:	53                   	push   %ebx
 8049e54:	e8 b7 ea ff ff       	call   8048910 <__x86.get_pc_thunk.bx>
 8049e59:	81 c3 a7 21 00 00    	add    $0x21a7,%ebx
 8049e5f:	83 ec 0c             	sub    $0xc,%esp
 8049e62:	8b 6c 24 20          	mov    0x20(%esp),%ebp
 8049e66:	8d b3 0c ff ff ff    	lea    -0xf4(%ebx),%esi
 8049e6c:	e8 83 e8 ff ff       	call   80486f4 <_init>
 8049e71:	8d 83 08 ff ff ff    	lea    -0xf8(%ebx),%eax
 8049e77:	29 c6                	sub    %eax,%esi
 8049e79:	c1 fe 02             	sar    $0x2,%esi
 8049e7c:	85 f6                	test   %esi,%esi
 8049e7e:	74 25                	je     8049ea5 <__libc_csu_init+0x55>
 8049e80:	31 ff                	xor    %edi,%edi
 8049e82:	8d b6 00 00 00 00    	lea    0x0(%esi),%esi
 8049e88:	83 ec 04             	sub    $0x4,%esp
 8049e8b:	ff 74 24 2c          	pushl  0x2c(%esp)
 8049e8f:	ff 74 24 2c          	pushl  0x2c(%esp)
 8049e93:	55                   	push   %ebp
 8049e94:	ff 94 bb 08 ff ff ff 	call   *-0xf8(%ebx,%edi,4)
 8049e9b:	83 c7 01             	add    $0x1,%edi
 8049e9e:	83 c4 10             	add    $0x10,%esp
 8049ea1:	39 f7                	cmp    %esi,%edi
 8049ea3:	75 e3                	jne    8049e88 <__libc_csu_init+0x38>
 8049ea5:	83 c4 0c             	add    $0xc,%esp
 8049ea8:	5b                   	pop    %ebx
 8049ea9:	5e                   	pop    %esi
 8049eaa:	5f                   	pop    %edi
 8049eab:	5d                   	pop    %ebp
 8049eac:	c3                   	ret    
 8049ead:	8d 76 00             	lea    0x0(%esi),%esi

08049eb0 <__libc_csu_fini>:
 8049eb0:	f3 c3                	repz ret 

Disassembly of section .fini:

08049eb4 <_fini>:
 8049eb4:	53                   	push   %ebx
 8049eb5:	83 ec 08             	sub    $0x8,%esp
 8049eb8:	e8 53 ea ff ff       	call   8048910 <__x86.get_pc_thunk.bx>
 8049ebd:	81 c3 43 21 00 00    	add    $0x2143,%ebx
 8049ec3:	83 c4 08             	add    $0x8,%esp
 8049ec6:	5b                   	pop    %ebx
 8049ec7:	c3                   	ret    
